

Microchip MPLAB XC8 Assembler V2.36 build 20220127204148 
                                                                                               Thu Apr 07 12:37:20 2022

Microchip MPLAB XC8 C Compiler v2.36 (Free license) build 20220127204148 Og1 
     1                           	processor	18F26K40
     2                           	fnconf	rparam,??,?,0
     3                           	pagewidth 120
     4                           	opt	flic
     5                           	psect	idataCOMRAM,global,class=CODE,delta=1,noexec
     6                           	psect	cinit,global,reloc=2,class=CODE,delta=1
     7                           	psect	bssCOMRAM,global,class=COMRAM,space=1,delta=1,lowdata,noexec
     8                           	psect	dataCOMRAM,global,class=COMRAM,space=1,delta=1,lowdata,noexec
     9                           	psect	cstackCOMRAM,global,class=COMRAM,space=1,delta=1,lowdata,noexec
    10                           	psect	text0,global,reloc=2,class=CODE,delta=1
    11                           	psect	text1,global,reloc=2,class=CODE,delta=1
    12                           	psect	text2,global,reloc=2,class=CODE,delta=1
    13                           	psect	text3,global,reloc=2,class=CODE,delta=1
    14                           	psect	text4,global,reloc=2,class=CODE,delta=1
    15                           	psect	text5,global,reloc=2,class=CODE,delta=1
    16                           	psect	text6,global,reloc=2,class=CODE,delta=1
    17                           	psect	text7,global,reloc=2,class=CODE,delta=1
    18                           	psect	text8,global,reloc=2,class=CODE,delta=1
    19                           	psect	text9,global,reloc=2,class=CODE,delta=1
    20                           	psect	text10,global,reloc=2,class=CODE,delta=1
    21                           	psect	text11,global,reloc=2,class=CODE,delta=1
    22                           	psect	text12,global,reloc=2,class=CODE,delta=1
    23                           	psect	text13,global,reloc=2,class=CODE,delta=1
    24                           	psect	text14,global,reloc=2,class=CODE,delta=1
    25                           	psect	text15,global,reloc=2,class=CODE,delta=1
    26                           	psect	text16,global,reloc=2,class=CODE,delta=1
    27                           	psect	text17,global,reloc=2,class=CODE,delta=1
    28                           	psect	text18,global,reloc=2,class=CODE,delta=1
    29                           	psect	text19,global,reloc=2,class=CODE,delta=1
    30                           	psect	text20,global,reloc=2,class=CODE,delta=1
    31                           	psect	text21,global,reloc=2,class=CODE,delta=1
    32                           	psect	text22,global,reloc=2,class=CODE,delta=1
    33                           	psect	intcode,global,reloc=2,class=CODE,delta=1
    34                           	psect	text24,global,reloc=2,class=CODE,delta=1
    35                           	psect	text25,global,reloc=2,class=CODE,delta=1
    36                           	psect	text26,global,reloc=2,class=CODE,delta=1
    37                           	psect	text27,global,reloc=2,class=CODE,delta=1
    38                           	psect	intsave_regs,global,class=BIGRAM,space=1,delta=1,noexec
    39                           	psect	rparam,global,class=COMRAM,space=1,delta=1,noexec
    40                           	psect	temp,global,ovrld,common,class=COMRAM,space=1,delta=1
    41                           	psect	idloc,global,abs,ovrld,class=IDLOC,space=5,delta=1,noexec
    42                           	psect	config,global,abs,ovrld,class=CONFIG,space=4,delta=1,noexec
    43  0000                     
    44                           ; Version 2.36
    45                           ; Generated 28/01/2022 GMT
    46                           ; 
    47                           ; Copyright © 2022, Microchip Technology Inc. and its subsidiaries ("Microchip")
    48                           ; All rights reserved.
    49                           ; 
    50                           ; This software is developed by Microchip Technology Inc. and its subsidiaries ("Microch
      +                          ip").
    51                           ; 
    52                           ; Redistribution and use in source and binary forms, with or without modification, are
    53                           ; permitted provided that the following conditions are met:
    54                           ; 
    55                           ;     1. Redistributions of source code must retain the above copyright notice, this lis
      +                          t of
    56                           ;        conditions and the following disclaimer.
    57                           ; 
    58                           ;     2. Redistributions in binary form must reproduce the above copyright notice, this 
      +                          list
    59                           ;        of conditions and the following disclaimer in the documentation and/or other
    60                           ;        materials provided with the distribution. Publication is not required when
    61                           ;        this file is used in an embedded application.
    62                           ; 
    63                           ;     3. Microchip's name may not be used to endorse or promote products derived from th
      +                          is
    64                           ;        software without specific prior written permission.
    65                           ; 
    66                           ; THIS SOFTWARE IS PROVIDED BY MICROCHIP "AS IS" AND ANY EXPRESS OR IMPLIED WARRANTIES,
    67                           ; INCLUDING, BUT NOT LIMITED TO, THE IMPLIED WARRANTIES OF MERCHANTABILITY AND FITNESS F
      +                          OR
    68                           ; PURPOSE ARE DISCLAIMED.  IN NO EVENT SHALL MICROCHIP BE LIABLE FOR ANY DIRECT, INDIREC
      +                          T,
    69                           ; INCIDENTAL, SPECIAL, EXEMPLARY, OR CONSEQUENTIAL DAMAGES (INCLUDING BUT NOT LIMITED TO
    70                           ; PROCUREMENT OF SUBSTITUTE GOODS OR SERVICES; LOSS OF USE, DATA OR PROFITS; OR BUSINESS
    71                           ; INTERRUPTION) HOWSOEVER CAUSED AND ON ANY THEORY OF LIABILITY, WHETHER IN CONTRACT, ST
      +                          RICT
    72                           ; LIABILITY, OR TORT (INCLUDING NEGLIGENCE OR OTHERWISE) ARISING IN ANY WAY OUT OF THE U
      +                          SE OF
    73                           ; THIS SOFTWARE, EVEN IF ADVISED OF THE POSSIBILITY OF SUCH DAMAGE.
    74                           ; 
    75                           ; 
    76                           ; Code-generator required, PIC18F26K40 Definitions
    77                           ; 
    78                           ; SFR Addresses
    79  0000                     
    80                           	psect	idataCOMRAM
    81  000A80                     __pidataCOMRAM:
    82                           	callstack 0
    83                           
    84                           ;initializer for _T2Delay
    85  000A80  96                 	db	150
    86  0000                     _IOCCF	set	3866
    87  0000                     _NVMCON2	set	3970
    88  0000                     _NVMDAT	set	3968
    89  0000                     _SSP1STATbits	set	3989
    90  0000                     _SSP1CON1bits	set	3990
    91  0000                     _SSP1MSK	set	3988
    92  0000                     _PIR3	set	3789
    93  0000                     _PIR2	set	3788
    94  0000                     _PIR1	set	3787
    95  0000                     _T4HLT	set	4024
    96  0000                     _PIR4bits	set	3790
    97  0000                     _T2HLT	set	4030
    98  0000                     _IOCCN	set	3867
    99  0000                     _IOCCP	set	3868
   100  0000                     _ANSELC	set	3873
   101  0000                     _PIR3bits	set	3789
   102  0000                     _PIR4	set	3790
   103  0000                     _PPSLOCKbits	set	3744
   104  0000                     _SSP2CLKPPS	set	3727
   105  0000                     _SSP2DATPPS	set	3728
   106  0000                     _PPSLOCK	set	3744
   107  0000                     _SSP1CLKPPS	set	3767
   108  0000                     _SSP1DATPPS	set	3768
   109  0000                     _RC0PPS	set	3831
   110  0000                     _ANSELA	set	3857
   111  0000                     _LATA	set	3971
   112  0000                     _RC3PPS	set	3834
   113  0000                     _RC2PPS	set	3833
   114  0000                     _RC1PPS	set	3832
   115  0000                     _PIE0bits	set	3778
   116  0000                     _PIR0bits	set	3786
   117  0000                     _SSP2BUF	set	3730
   118  0000                     _SSP2ADD	set	3731
   119  0000                     _TRISA	set	3976
   120  0000                     _LATC	set	3973
   121  0000                     _LATB	set	3972
   122  0000                     _ANSELB	set	3865
   123  0000                     _NVMADR	set	3966
   124  0000                     _NVMCON1bits	set	3969
   125  0000                     _PORTB	set	3982
   126  0000                     _T4PR	set	4022
   127  0000                     _T4CONbits	set	4023
   128  0000                     _T4CLKbits	set	4025
   129  0000                     _T2PR	set	4028
   130  0000                     _T2CONbits	set	4029
   131  0000                     _T2CLKbits	set	4031
   132  0000                     _TRISC	set	3978
   133  0000                     _TRISB	set	3977
   134  0000                     _PIE3bits	set	3781
   135  0000                     _PIE4bits	set	3782
   136  0000                     _INTCONbits	set	4082
   137  0000                     _T2RST	set	4032
   138  0000                     _PIR5	set	3791
   139  0000                     _T4RST	set	4026
   140  0000                     _SSP1BUF	set	3986
   141  0000                     _PORTC	set	3983
   142  0000                     _SSP1ADD	set	3987
   143  0000                     _SSP1CON3bits	set	3992
   144  0000                     _SSP1CON2bits	set	3991
   145  0000                     _SSP2STATbits	set	3733
   146  0000                     _SSP2CON1bits	set	3734
   147  0000                     _SSP2CON2bits	set	3735
   148                           
   149                           ; #config settings
   150                           
   151                           	psect	cinit
   152  00094C                     __pcinit:
   153                           	callstack 0
   154  00094C                     start_initialization:
   155                           	callstack 0
   156  00094C                     __initialization:
   157                           	callstack 0
   158                           
   159                           ; Initialize objects allocated to COMRAM (1 bytes)
   160                           ; load TBLPTR registers with __pidataCOMRAM
   161  00094C  0E80               	movlw	low __pidataCOMRAM
   162  00094E  6EF6               	movwf	tblptrl,c
   163  000950  0E0A               	movlw	high __pidataCOMRAM
   164  000952  6EF7               	movwf	tblptrh,c
   165  000954  0E00               	movlw	low (__pidataCOMRAM shr (0+16))
   166  000956  6EF8               	movwf	tblptru,c
   167  000958  0009               	tblrd		*+	;fetch initializer
   168  00095A  CFF5 F043          	movff	tablat,__pdataCOMRAM
   169                           
   170                           ; Clear objects allocated to COMRAM (45 bytes)
   171  00095E  EE00  F001         	lfsr	0,__pbssCOMRAM
   172  000962  0E2D               	movlw	45
   173  000964                     clear_0:
   174  000964  6AEE               	clrf	postinc0,c
   175  000966  06E8               	decf	wreg,f,c
   176  000968  E1FD               	bnz	clear_0
   177  00096A                     end_of_initialization:
   178                           	callstack 0
   179  00096A                     __end_of__initialization:
   180                           	callstack 0
   181  00096A  9044               	bcf	int$flags,0,c	;clear compiler interrupt flag (level 1)
   182  00096C  9244               	bcf	int$flags,1,c	;clear compiler interrupt flag (level 2)
   183  00096E  0E00               	movlw	low (__Lmediumconst shr (0+16))
   184  000970  6EF8               	movwf	tblptru,c
   185  000972  0100               	movlb	0
   186  000974  EF1C  F003         	goto	_main	;jump to C main() function
   187                           
   188                           	psect	bssCOMRAM
   189  000001                     __pbssCOMRAM:
   190                           	callstack 0
   191  000001                     _I2C1Registers:
   192                           	callstack 0
   193  000001                     	ds	29
   194  00001E                     _ID:
   195                           	callstack 0
   196  00001E                     	ds	4
   197  000022                     _distData:
   198                           	callstack 0
   199  000022                     	ds	3
   200  000025                     _I2C2Data:
   201                           	callstack 0
   202  000025                     	ds	1
   203  000026                     _I2C1RxData:
   204                           	callstack 0
   205  000026                     	ds	1
   206  000027                     _I2C1Status:
   207                           	callstack 0
   208  000027                     	ds	1
   209  000028                     _I2C1RegIndex:
   210                           	callstack 0
   211  000028                     	ds	1
   212  000029                     _T4Count:
   213                           	callstack 0
   214  000029                     	ds	1
   215  00002A                     _T2Count:
   216                           	callstack 0
   217  00002A                     	ds	1
   218  00002B                     _sensorEEADR:
   219                           	callstack 0
   220  00002B                     	ds	1
   221  00002C                     _scanAddress:
   222                           	callstack 0
   223  00002C                     	ds	1
   224  00002D                     _pFlag:
   225                           	callstack 0
   226  00002D                     	ds	1
   227                           
   228                           	psect	dataCOMRAM
   229  000043                     __pdataCOMRAM:
   230                           	callstack 0
   231  000043                     _T2Delay:
   232                           	callstack 0
   233  000043                     	ds	1
   234                           
   235                           	psect	cstackCOMRAM
   236  00002E                     __pcstackCOMRAM:
   237                           	callstack 0
   238  00002E                     ??_I2C1_ISR:
   239  00002E                     
   240                           ; 1 bytes @ 0x0
   241  00002E                     	ds	2
   242  000030                     ??_ISR:
   243                           
   244                           ; 1 bytes @ 0x2
   245  000030                     	ds	2
   246  000032                     SSP1Config@slaveAdd:
   247                           	callstack 0
   248  000032                     WriteToEEPROM@val:
   249                           	callstack 0
   250  000032                     ReadEEPROM@address:
   251                           	callstack 0
   252  000032                     I2C2TransmitAddress@addr:
   253                           	callstack 0
   254  000032                     I2C2TransmitData@data:
   255                           	callstack 0
   256  000032                     I2C2RequestData@readAddr:
   257                           	callstack 0
   258                           
   259                           ; 1 bytes @ 0x4
   260  000032                     	ds	1
   261  000033                     ??_I2C2RequestData:
   262  000033                     WriteToEEPROM@address:
   263                           	callstack 0
   264  000033                     StartStatus@ptr:
   265                           	callstack 0
   266                           
   267                           ; 1 bytes @ 0x5
   268  000033                     	ds	1
   269  000034                     EraseSensors@i:
   270                           	callstack 0
   271                           
   272                           ; 1 bytes @ 0x6
   273  000034                     	ds	1
   274  000035                     I2C2RequestData@function:
   275                           	callstack 0
   276                           
   277                           ; 1 bytes @ 0x7
   278  000035                     	ds	1
   279  000036                     ??_RequestSensorData:
   280                           
   281                           ; 1 bytes @ 0x8
   282  000036                     	ds	7
   283  00003D                     RequestSensorData@sensorID:
   284                           	callstack 0
   285                           
   286                           ; 1 bytes @ 0xF
   287  00003D                     	ds	1
   288  00003E                     RequestSensorData@distanceBytes:
   289                           	callstack 0
   290                           
   291                           ; 1 bytes @ 0x10
   292  00003E                     	ds	1
   293  00003F                     RequestSensorData@lastSensor:
   294                           	callstack 0
   295                           
   296                           ; 1 bytes @ 0x11
   297  00003F                     	ds	1
   298  000040                     RequestSensorData@i2:
   299                           	callstack 0
   300                           
   301                           ; 1 bytes @ 0x12
   302  000040                     	ds	1
   303  000041                     RequestSensorData@byteCount:
   304                           	callstack 0
   305                           
   306                           ; 1 bytes @ 0x13
   307  000041                     	ds	1
   308  000042                     RequestSensorData@i:
   309                           	callstack 0
   310                           
   311                           ; 1 bytes @ 0x14
   312  000042                     	ds	1
   313  000043                     
   314                           ; 1 bytes @ 0x15
   315 ;;
   316 ;;Main: autosize = 0, tempsize = 0, incstack = 0, save=0
   317 ;;
   318 ;; *************** function _main *****************
   319 ;; Defined at:
   320 ;;		line 701 in file "SensorBoard_PCB.c"
   321 ;; Parameters:    Size  Location     Type
   322 ;;		None
   323 ;; Auto vars:     Size  Location     Type
   324 ;;		None
   325 ;; Return value:  Size  Location     Type
   326 ;;                  1    wreg      void 
   327 ;; Registers used:
   328 ;;		wreg, fsr1l, fsr1h, fsr2l, fsr2h, status,2, status,0, cstack
   329 ;; Tracked objects:
   330 ;;		On entry : 0/0
   331 ;;		On exit  : 0/0
   332 ;;		Unchanged: 0/0
   333 ;; Data sizes:     COMRAM   BANK0   BANK1   BANK2   BANK3   BANK4   BANK5   BANK6   BANK7   BANK8   BANK9  BANK10  BANK1
      +1  BANK12  BANK13  BANK14
   334 ;;      Params:         0       0       0       0       0       0       0       0       0       0       0       0       
      +0       0       0       0
   335 ;;      Locals:         0       0       0       0       0       0       0       0       0       0       0       0       
      +0       0       0       0
   336 ;;      Temps:          0       0       0       0       0       0       0       0       0       0       0       0       
      +0       0       0       0
   337 ;;      Totals:         0       0       0       0       0       0       0       0       0       0       0       0       
      +0       0       0       0
   338 ;;Total ram usage:        0 bytes
   339 ;; Hardware stack levels required when called: 5
   340 ;; This function calls:
   341 ;;		_EraseSensors
   342 ;;		_HandleIOC
   343 ;;		_HandleTMR2
   344 ;;		_HandleTMR4
   345 ;;		_IntConfig
   346 ;;		_NVMConfig
   347 ;;		_PortsConfig
   348 ;;		_RequestSensorData
   349 ;;		_SearchProcess
   350 ;;		_StartStatus
   351 ;; This function is called by:
   352 ;;		Startup code after reset
   353 ;; This function uses a non-reentrant model
   354 ;;
   355                           
   356                           	psect	text0
   357  000638                     __ptext0:
   358                           	callstack 0
   359  000638                     _main:
   360                           	callstack 26
   361  000638                     
   362                           ;SensorBoard_PCB.c: 703:     PortsConfig();
   363  000638  EC96  F003         	call	_PortsConfig	;wreg free
   364                           
   365                           ;SensorBoard_PCB.c: 704:     NVMConfig();
   366  00063C  EC32  F005         	call	_NVMConfig	;wreg free
   367  000640                     
   368                           ;SensorBoard_PCB.c: 706:     StartStatus();
   369  000640  EC66  F003         	call	_StartStatus	;wreg free
   370  000644                     
   371                           ;SensorBoard_PCB.c: 708:     IntConfig();
   372  000644  ECF7  F004         	call	_IntConfig	;wreg free
   373  000648                     l1942:
   374                           
   375                           ;SensorBoard_PCB.c: 711:     {;SensorBoard_PCB.c: 714:         if(pFlag & 0b10000000) {H
      +                          andleTMR4(); pFlag &= 0b01111111;}
   376  000648  AE2D               	btfss	_pFlag^0,7,c
   377  00064A  EF29  F003         	goto	u1261
   378  00064E  EF2B  F003         	goto	u1260
   379  000652                     u1261:
   380  000652  EF2E  F003         	goto	l1948
   381  000656                     u1260:
   382  000656  EC3E  F005         	call	_HandleTMR4	;wreg free
   383  00065A  9E2D               	bcf	_pFlag^0,7,c
   384  00065C                     l1948:
   385                           
   386                           ;SensorBoard_PCB.c: 715:         if(pFlag & 0b01000000) {HandleTMR2(); pFlag &= 0b101111
      +                          11;}
   387  00065C  AC2D               	btfss	_pFlag^0,6,c
   388  00065E  EF33  F003         	goto	u1271
   389  000662  EF35  F003         	goto	u1270
   390  000666                     u1271:
   391  000666  EF38  F003         	goto	l1954
   392  00066A                     u1270:
   393  00066A  ECEA  F003         	call	_HandleTMR2	;wreg free
   394  00066E  9C2D               	bcf	_pFlag^0,6,c
   395  000670                     l1954:
   396                           
   397                           ;SensorBoard_PCB.c: 716:         if(pFlag & 0b00100000) {HandleIOC(); pFlag &= 0b1101111
      +                          1;}
   398  000670  AA2D               	btfss	_pFlag^0,5,c
   399  000672  EF3D  F003         	goto	u1281
   400  000676  EF3F  F003         	goto	u1280
   401  00067A                     u1281:
   402  00067A  EF42  F003         	goto	l1960
   403  00067E                     u1280:
   404  00067E  ECBC  F004         	call	_HandleIOC	;wreg free
   405  000682  9A2D               	bcf	_pFlag^0,5,c
   406  000684                     l1960:
   407                           
   408                           ;SensorBoard_PCB.c: 718:         if(pFlag & 0b00010000) {SearchProcess(); pFlag &= 0b111
      +                          01111;}
   409  000684  A82D               	btfss	_pFlag^0,4,c
   410  000686  EF47  F003         	goto	u1291
   411  00068A  EF49  F003         	goto	u1290
   412  00068E                     u1291:
   413  00068E  EF4C  F003         	goto	l1966
   414  000692                     u1290:
   415  000692  EC53  F004         	call	_SearchProcess	;wreg free
   416  000696  982D               	bcf	_pFlag^0,4,c
   417  000698                     l1966:
   418                           
   419                           ;SensorBoard_PCB.c: 719:         if(pFlag & 0b00001000) {EraseSensors(); pFlag &= 0b1111
      +                          0111;}
   420  000698  A62D               	btfss	_pFlag^0,3,c
   421  00069A  EF51  F003         	goto	u1301
   422  00069E  EF53  F003         	goto	u1300
   423  0006A2                     u1301:
   424  0006A2  EF56  F003         	goto	l1972
   425  0006A6                     u1300:
   426  0006A6  ECD1  F004         	call	_EraseSensors	;wreg free
   427  0006AA  962D               	bcf	_pFlag^0,3,c
   428  0006AC                     l1972:
   429                           
   430                           ;SensorBoard_PCB.c: 720:         if(pFlag & 0b00000100) {RequestSensorData(); pFlag &= 0
      +                          b11111011;}
   431  0006AC  A42D               	btfss	_pFlag^0,2,c
   432  0006AE  EF5B  F003         	goto	u1311
   433  0006B2  EF5D  F003         	goto	u1310
   434  0006B6                     u1311:
   435  0006B6  EF60  F003         	goto	l1978
   436  0006BA                     u1310:
   437  0006BA  EC62  F001         	call	_RequestSensorData	;wreg free
   438  0006BE  942D               	bcf	_pFlag^0,2,c
   439  0006C0                     l1978:
   440                           
   441                           ;SensorBoard_PCB.c: 722:         LATA = SSP1ADD;
   442  0006C0  CF93 FF83          	movff	3987,3971	;volatile
   443  0006C4  EF24  F003         	goto	l1942
   444  0006C8  EF37  F000         	goto	start
   445  0006CC                     __end_of_main:
   446                           	callstack 0
   447                           
   448 ;; *************** function _StartStatus *****************
   449 ;; Defined at:
   450 ;;		line 569 in file "SensorBoard_PCB.c"
   451 ;; Parameters:    Size  Location     Type
   452 ;;		None
   453 ;; Auto vars:     Size  Location     Type
   454 ;;  ptr             1    5[COMRAM] unsigned char 
   455 ;; Return value:  Size  Location     Type
   456 ;;                  1    wreg      void 
   457 ;; Registers used:
   458 ;;		wreg, fsr2l, fsr2h, status,2, status,0, cstack
   459 ;; Tracked objects:
   460 ;;		On entry : 0/0
   461 ;;		On exit  : 0/0
   462 ;;		Unchanged: 0/0
   463 ;; Data sizes:     COMRAM   BANK0   BANK1   BANK2   BANK3   BANK4   BANK5   BANK6   BANK7   BANK8   BANK9  BANK10  BANK1
      +1  BANK12  BANK13  BANK14
   464 ;;      Params:         0       0       0       0       0       0       0       0       0       0       0       0       
      +0       0       0       0
   465 ;;      Locals:         1       0       0       0       0       0       0       0       0       0       0       0       
      +0       0       0       0
   466 ;;      Temps:          0       0       0       0       0       0       0       0       0       0       0       0       
      +0       0       0       0
   467 ;;      Totals:         1       0       0       0       0       0       0       0       0       0       0       0       
      +0       0       0       0
   468 ;;Total ram usage:        1 bytes
   469 ;; Hardware stack levels used: 1
   470 ;; Hardware stack levels required when called: 3
   471 ;; This function calls:
   472 ;;		_IOCConfig
   473 ;;		_SSP1Config
   474 ;;		_SSP2Config
   475 ;;		_TMR2Config
   476 ;; This function is called by:
   477 ;;		_main
   478 ;; This function uses a non-reentrant model
   479 ;;
   480                           
   481                           	psect	text1
   482  0006CC                     __ptext1:
   483                           	callstack 0
   484  0006CC                     _StartStatus:
   485                           	callstack 27
   486  0006CC                     
   487                           ;SensorBoard_PCB.c: 572:     if(PORTC & 0b01000000)
   488  0006CC  AC8F               	btfss	143,6,c	;volatile
   489  0006CE  EF6B  F003         	goto	u641
   490  0006D2  EF6D  F003         	goto	u640
   491  0006D6                     u641:
   492  0006D6  EF75  F003         	goto	l1480
   493  0006DA                     u640:
   494  0006DA                     
   495                           ;SensorBoard_PCB.c: 573:     {;SensorBoard_PCB.c: 576:         SSP2Config();
   496  0006DA  EC06  F005         	call	_SSP2Config	;wreg free
   497                           
   498                           ;SensorBoard_PCB.c: 577:         TMR2Config();
   499  0006DE  ECE5  F004         	call	_TMR2Config	;wreg free
   500                           
   501                           ;SensorBoard_PCB.c: 578:         IOCConfig();
   502  0006E2  EC1B  F005         	call	_IOCConfig	;wreg free
   503                           
   504                           ;SensorBoard_PCB.c: 579:     }
   505  0006E6  EF79  F003         	goto	l1484
   506  0006EA                     l1480:
   507                           
   508                           ;SensorBoard_PCB.c: 581:     {;SensorBoard_PCB.c: 584:         SSP1Config();
   509  0006EA  EC10  F004         	call	_SSP1Config	;wreg free
   510  0006EE                     
   511                           ;SensorBoard_PCB.c: 585:         SSP2Config();
   512  0006EE  EC06  F005         	call	_SSP2Config	;wreg free
   513  0006F2                     l1484:
   514  0006F2                     
   515                           ;SensorBoard_PCB.c: 589:     for(ptr = 0; ptr != 29; ptr++)
   516  0006F2  0E00               	movlw	0
   517  0006F4  6E33               	movwf	StartStatus@ptr^0,c
   518  0006F6                     l1492:
   519                           
   520                           ;SensorBoard_PCB.c: 590:     {;SensorBoard_PCB.c: 591:         I2C1Registers[ptr] = ptr;
   521  0006F6  0E01               	movlw	low _I2C1Registers
   522  0006F8  2433               	addwf	StartStatus@ptr^0,w,c
   523  0006FA  6ED9               	movwf	fsr2l,c
   524  0006FC  6ADA               	clrf	fsr2h,c
   525  0006FE  0E00               	movlw	high _I2C1Registers
   526  000700  22DA               	addwfc	fsr2h,f,c
   527  000702  C033  FFDF         	movff	StartStatus@ptr,indf2
   528  000706                     
   529                           ;SensorBoard_PCB.c: 592:     }
   530  000706  2A33               	incf	StartStatus@ptr^0,f,c
   531  000708  0E1D               	movlw	29
   532  00070A  1833               	xorwf	StartStatus@ptr^0,w,c
   533  00070C  A4D8               	btfss	status,2,c
   534  00070E  EF8B  F003         	goto	u651
   535  000712  EF8D  F003         	goto	u650
   536  000716                     u651:
   537  000716  EF7B  F003         	goto	l1492
   538  00071A                     u650:
   539  00071A                     
   540                           ;SensorBoard_PCB.c: 593:     I2C1Registers[25] = 'M';
   541  00071A  0E4D               	movlw	77
   542  00071C  6E1A               	movwf	(_I2C1Registers+25)^0,c
   543                           
   544                           ;SensorBoard_PCB.c: 594:     I2C1Registers[26] = 'O';
   545  00071E  0E4F               	movlw	79
   546  000720  6E1B               	movwf	(_I2C1Registers+26)^0,c
   547                           
   548                           ;SensorBoard_PCB.c: 595:     I2C1Registers[27] = 'D';
   549  000722  0E44               	movlw	68
   550  000724  6E1C               	movwf	(_I2C1Registers+27)^0,c
   551                           
   552                           ;SensorBoard_PCB.c: 596:     I2C1Registers[28] = 'X';
   553  000726  0E58               	movlw	88
   554  000728  6E1D               	movwf	(_I2C1Registers+28)^0,c
   555  00072A  0012               	return		;funcret
   556  00072C                     __end_of_StartStatus:
   557                           	callstack 0
   558                           
   559 ;; *************** function _TMR2Config *****************
   560 ;; Defined at:
   561 ;;		line 190 in file "SensorBoard_PCB.c"
   562 ;; Parameters:    Size  Location     Type
   563 ;;		None
   564 ;; Auto vars:     Size  Location     Type
   565 ;;		None
   566 ;; Return value:  Size  Location     Type
   567 ;;                  1    wreg      void 
   568 ;; Registers used:
   569 ;;		wreg, status,2
   570 ;; Tracked objects:
   571 ;;		On entry : 0/0
   572 ;;		On exit  : 0/0
   573 ;;		Unchanged: 0/0
   574 ;; Data sizes:     COMRAM   BANK0   BANK1   BANK2   BANK3   BANK4   BANK5   BANK6   BANK7   BANK8   BANK9  BANK10  BANK1
      +1  BANK12  BANK13  BANK14
   575 ;;      Params:         0       0       0       0       0       0       0       0       0       0       0       0       
      +0       0       0       0
   576 ;;      Locals:         0       0       0       0       0       0       0       0       0       0       0       0       
      +0       0       0       0
   577 ;;      Temps:          0       0       0       0       0       0       0       0       0       0       0       0       
      +0       0       0       0
   578 ;;      Totals:         0       0       0       0       0       0       0       0       0       0       0       0       
      +0       0       0       0
   579 ;;Total ram usage:        0 bytes
   580 ;; Hardware stack levels used: 1
   581 ;; Hardware stack levels required when called: 2
   582 ;; This function calls:
   583 ;;		Nothing
   584 ;; This function is called by:
   585 ;;		_StartStatus
   586 ;; This function uses a non-reentrant model
   587 ;;
   588                           
   589                           	psect	text2
   590  0009CA                     __ptext2:
   591                           	callstack 0
   592  0009CA                     _TMR2Config:
   593                           	callstack 27
   594  0009CA                     
   595                           ;SensorBoard_PCB.c: 193:     T2CLKbits.T2CS = 0b0001;
   596  0009CA  50BF               	movf	191,w,c	;volatile
   597  0009CC  0BF0               	andlw	-16
   598  0009CE  0901               	iorlw	1
   599  0009D0  6EBF               	movwf	191,c	;volatile
   600                           
   601                           ;SensorBoard_PCB.c: 194:     T2CONbits.T2CKPS = 0b111;
   602  0009D2  0E70               	movlw	112
   603  0009D4  12BD               	iorwf	189,f,c	;volatile
   604                           
   605                           ;SensorBoard_PCB.c: 195:     T2CONbits.T2OUTPS = 0b1111;
   606  0009D6  0E0F               	movlw	15
   607  0009D8  12BD               	iorwf	189,f,c	;volatile
   608                           
   609                           ;SensorBoard_PCB.c: 196:     T2PR = 250;
   610  0009DA  0EFA               	movlw	250
   611  0009DC  6EBC               	movwf	188,c	;volatile
   612                           
   613                           ;SensorBoard_PCB.c: 198:     T2HLT = 0x00;
   614  0009DE  0E00               	movlw	0
   615  0009E0  6EBE               	movwf	190,c	;volatile
   616  0009E2                     
   617                           ;SensorBoard_PCB.c: 199:     T2RST = 0xFF;
   618  0009E2  68C0               	setf	192,c	;volatile
   619  0009E4                     
   620                           ;SensorBoard_PCB.c: 201:     T2CONbits.T2ON = 1;
   621  0009E4  8EBD               	bsf	189,7,c	;volatile
   622  0009E6                     
   623                           ;SensorBoard_PCB.c: 203:     PIR4bits.TMR2IF = 0;
   624  0009E6  010E               	movlb	14	; () banked
   625  0009E8  93CE               	bcf	206,1,b	;volatile
   626  0009EA                     
   627                           ; BSR set to: 14
   628                           ;SensorBoard_PCB.c: 204:     PIE4bits.TMR2IE = 1;
   629  0009EA  83C6               	bsf	198,1,b	;volatile
   630  0009EC                     
   631                           ; BSR set to: 14
   632  0009EC  0012               	return		;funcret
   633  0009EE                     __end_of_TMR2Config:
   634                           	callstack 0
   635                           
   636 ;; *************** function _SSP2Config *****************
   637 ;; Defined at:
   638 ;;		line 264 in file "SensorBoard_PCB.c"
   639 ;; Parameters:    Size  Location     Type
   640 ;;		None
   641 ;; Auto vars:     Size  Location     Type
   642 ;;		None
   643 ;; Return value:  Size  Location     Type
   644 ;;                  1    wreg      void 
   645 ;; Registers used:
   646 ;;		wreg, status,2
   647 ;; Tracked objects:
   648 ;;		On entry : 0/0
   649 ;;		On exit  : 0/0
   650 ;;		Unchanged: 0/0
   651 ;; Data sizes:     COMRAM   BANK0   BANK1   BANK2   BANK3   BANK4   BANK5   BANK6   BANK7   BANK8   BANK9  BANK10  BANK1
      +1  BANK12  BANK13  BANK14
   652 ;;      Params:         0       0       0       0       0       0       0       0       0       0       0       0       
      +0       0       0       0
   653 ;;      Locals:         0       0       0       0       0       0       0       0       0       0       0       0       
      +0       0       0       0
   654 ;;      Temps:          0       0       0       0       0       0       0       0       0       0       0       0       
      +0       0       0       0
   655 ;;      Totals:         0       0       0       0       0       0       0       0       0       0       0       0       
      +0       0       0       0
   656 ;;Total ram usage:        0 bytes
   657 ;; Hardware stack levels used: 1
   658 ;; Hardware stack levels required when called: 2
   659 ;; This function calls:
   660 ;;		Nothing
   661 ;; This function is called by:
   662 ;;		_StartStatus
   663 ;; This function uses a non-reentrant model
   664 ;;
   665                           
   666                           	psect	text3
   667  000A0C                     __ptext3:
   668                           	callstack 0
   669  000A0C                     _SSP2Config:
   670                           	callstack 27
   671  000A0C                     
   672                           ;SensorBoard_PCB.c: 267:     SSP2ADD = 39;
   673  000A0C  0E27               	movlw	39
   674  000A0E  010E               	movlb	14	; () banked
   675  000A10  6F93               	movwf	147,b	;volatile
   676                           
   677                           ;SensorBoard_PCB.c: 268:     SSP2CON1bits.SSPM = 0b1000;
   678  000A12  5196               	movf	150,w,b	;volatile
   679  000A14  0BF0               	andlw	-16
   680  000A16  0908               	iorlw	8
   681  000A18  6F96               	movwf	150,b	;volatile
   682  000A1A                     
   683                           ; BSR set to: 14
   684                           ;SensorBoard_PCB.c: 269:     SSP2STATbits.SMP = 1;
   685  000A1A  8F95               	bsf	149,7,b	;volatile
   686  000A1C                     
   687                           ; BSR set to: 14
   688                           ;SensorBoard_PCB.c: 270:     SSP2STATbits.CKE = 0;
   689  000A1C  9D95               	bcf	149,6,b	;volatile
   690  000A1E                     
   691                           ; BSR set to: 14
   692                           ;SensorBoard_PCB.c: 272:     SSP2CON1bits.SSPEN = 1;
   693  000A1E  8B96               	bsf	150,5,b	;volatile
   694  000A20                     
   695                           ; BSR set to: 14
   696  000A20  0012               	return		;funcret
   697  000A22                     __end_of_SSP2Config:
   698                           	callstack 0
   699                           
   700 ;; *************** function _SSP1Config *****************
   701 ;; Defined at:
   702 ;;		line 236 in file "SensorBoard_PCB.c"
   703 ;; Parameters:    Size  Location     Type
   704 ;;		None
   705 ;; Auto vars:     Size  Location     Type
   706 ;;  slaveAdd        1    4[COMRAM] unsigned char 
   707 ;; Return value:  Size  Location     Type
   708 ;;                  1    wreg      void 
   709 ;; Registers used:
   710 ;;		wreg, status,2, status,0
   711 ;; Tracked objects:
   712 ;;		On entry : 0/0
   713 ;;		On exit  : 0/0
   714 ;;		Unchanged: 0/0
   715 ;; Data sizes:     COMRAM   BANK0   BANK1   BANK2   BANK3   BANK4   BANK5   BANK6   BANK7   BANK8   BANK9  BANK10  BANK1
      +1  BANK12  BANK13  BANK14
   716 ;;      Params:         0       0       0       0       0       0       0       0       0       0       0       0       
      +0       0       0       0
   717 ;;      Locals:         1       0       0       0       0       0       0       0       0       0       0       0       
      +0       0       0       0
   718 ;;      Temps:          0       0       0       0       0       0       0       0       0       0       0       0       
      +0       0       0       0
   719 ;;      Totals:         1       0       0       0       0       0       0       0       0       0       0       0       
      +0       0       0       0
   720 ;;Total ram usage:        1 bytes
   721 ;; Hardware stack levels used: 1
   722 ;; Hardware stack levels required when called: 2
   723 ;; This function calls:
   724 ;;		Nothing
   725 ;; This function is called by:
   726 ;;		_StartStatus
   727 ;; This function uses a non-reentrant model
   728 ;;
   729                           
   730                           	psect	text4
   731  000820                     __ptext4:
   732                           	callstack 0
   733  000820                     _SSP1Config:
   734                           	callstack 27
   735  000820                     
   736                           ;SensorBoard_PCB.c: 242:     slaveAdd = (~(PORTB << 1)) & 0b01111110;
   737  000820  508E               	movf	142,w,c	;volatile
   738  000822  248E               	addwf	142,w,c	;volatile
   739  000824  0AFF               	xorlw	255
   740  000826  0B7E               	andlw	126
   741  000828  6E32               	movwf	SSP1Config@slaveAdd^0,c
   742  00082A                     
   743                           ;SensorBoard_PCB.c: 243:     if(slaveAdd < 0x10) {SSP1ADD = 0x10;} else {SSP1ADD = slave
      +                          Add;}
   744  00082A  0E10               	movlw	16
   745  00082C  6032               	cpfslt	SSP1Config@slaveAdd^0,c
   746  00082E  EF1B  F004         	goto	u211
   747  000832  EF1D  F004         	goto	u210
   748  000836                     u211:
   749  000836  EF21  F004         	goto	l168
   750  00083A                     u210:
   751  00083A  0E10               	movlw	16
   752  00083C  6E93               	movwf	147,c	;volatile
   753  00083E  EF23  F004         	goto	l169
   754  000842                     l168:
   755  000842  C032  FF93         	movff	SSP1Config@slaveAdd,3987	;volatile
   756  000846                     l169:
   757                           
   758                           ;SensorBoard_PCB.c: 244:     SSP1MSK = 0xFF;
   759  000846  6894               	setf	148,c	;volatile
   760                           
   761                           ;SensorBoard_PCB.c: 246:     SSP1CON1bits.CKP = 1;
   762  000848  8896               	bsf	150,4,c	;volatile
   763  00084A                     
   764                           ;SensorBoard_PCB.c: 247:     SSP1CON1bits.SSPM = 0b0110;
   765  00084A  5096               	movf	150,w,c	;volatile
   766  00084C  0BF0               	andlw	-16
   767  00084E  0906               	iorlw	6
   768  000850  6E96               	movwf	150,c	;volatile
   769  000852                     
   770                           ;SensorBoard_PCB.c: 248:     SSP1CON2bits.GCEN = 0;
   771  000852  9E97               	bcf	151,7,c	;volatile
   772  000854                     
   773                           ;SensorBoard_PCB.c: 250:     SSP1STATbits.SMP = 0;
   774  000854  9E95               	bcf	149,7,c	;volatile
   775  000856                     
   776                           ;SensorBoard_PCB.c: 251:     SSP1STATbits.CKE = 0;
   777  000856  9C95               	bcf	149,6,c	;volatile
   778  000858                     
   779                           ;SensorBoard_PCB.c: 253:     SSP1MSK = 0xFF;
   780  000858  6894               	setf	148,c	;volatile
   781  00085A                     
   782                           ;SensorBoard_PCB.c: 255:     SSP1CON3bits.PCIE = 0;
   783  00085A  9C98               	bcf	152,6,c	;volatile
   784  00085C                     
   785                           ;SensorBoard_PCB.c: 256:     SSP1CON3bits.SCIE = 0;
   786  00085C  9A98               	bcf	152,5,c	;volatile
   787  00085E                     
   788                           ;SensorBoard_PCB.c: 258:     PIR3bits.SSP1IF = 0;
   789  00085E  010E               	movlb	14	; () banked
   790  000860  91CD               	bcf	205,0,b	;volatile
   791  000862                     
   792                           ; BSR set to: 14
   793                           ;SensorBoard_PCB.c: 259:     PIE3bits.SSP1IE = 1;
   794  000862  81C5               	bsf	197,0,b	;volatile
   795  000864                     
   796                           ; BSR set to: 14
   797                           ;SensorBoard_PCB.c: 261:     SSP1CON1bits.SSPEN = 1;
   798  000864  8A96               	bsf	150,5,c	;volatile
   799  000866                     
   800                           ; BSR set to: 14
   801  000866  0012               	return		;funcret
   802  000868                     __end_of_SSP1Config:
   803                           	callstack 0
   804                           
   805 ;; *************** function _IOCConfig *****************
   806 ;; Defined at:
   807 ;;		line 181 in file "SensorBoard_PCB.c"
   808 ;; Parameters:    Size  Location     Type
   809 ;;		None
   810 ;; Auto vars:     Size  Location     Type
   811 ;;		None
   812 ;; Return value:  Size  Location     Type
   813 ;;                  1    wreg      void 
   814 ;; Registers used:
   815 ;;		wreg, status,2
   816 ;; Tracked objects:
   817 ;;		On entry : 0/0
   818 ;;		On exit  : 0/0
   819 ;;		Unchanged: 0/0
   820 ;; Data sizes:     COMRAM   BANK0   BANK1   BANK2   BANK3   BANK4   BANK5   BANK6   BANK7   BANK8   BANK9  BANK10  BANK1
      +1  BANK12  BANK13  BANK14
   821 ;;      Params:         0       0       0       0       0       0       0       0       0       0       0       0       
      +0       0       0       0
   822 ;;      Locals:         0       0       0       0       0       0       0       0       0       0       0       0       
      +0       0       0       0
   823 ;;      Temps:          0       0       0       0       0       0       0       0       0       0       0       0       
      +0       0       0       0
   824 ;;      Totals:         0       0       0       0       0       0       0       0       0       0       0       0       
      +0       0       0       0
   825 ;;Total ram usage:        0 bytes
   826 ;; Hardware stack levels used: 1
   827 ;; Hardware stack levels required when called: 2
   828 ;; This function calls:
   829 ;;		Nothing
   830 ;; This function is called by:
   831 ;;		_StartStatus
   832 ;; This function uses a non-reentrant model
   833 ;;
   834                           
   835                           	psect	text5
   836  000A36                     __ptext5:
   837                           	callstack 0
   838  000A36                     _IOCConfig:
   839                           	callstack 27
   840  000A36                     
   841                           ;SensorBoard_PCB.c: 183:     IOCCP = 0b00110000;
   842  000A36  0E30               	movlw	48
   843  000A38  010F               	movlb	15	; () banked
   844  000A3A  6F1C               	movwf	28,b	;volatile
   845                           
   846                           ;SensorBoard_PCB.c: 184:     IOCCN = 0b00000000;
   847  000A3C  0E00               	movlw	0
   848  000A3E  6F1B               	movwf	27,b	;volatile
   849  000A40                     
   850                           ; BSR set to: 15
   851                           ;SensorBoard_PCB.c: 186:     PIR0bits.IOCIF = 0;
   852  000A40  010E               	movlb	14	; () banked
   853  000A42  99CA               	bcf	202,4,b	;volatile
   854  000A44                     
   855                           ; BSR set to: 14
   856                           ;SensorBoard_PCB.c: 187:     PIE0bits.IOCIE = 1;
   857  000A44  89C2               	bsf	194,4,b	;volatile
   858  000A46                     
   859                           ; BSR set to: 14
   860  000A46  0012               	return		;funcret
   861  000A48                     __end_of_IOCConfig:
   862                           	callstack 0
   863                           
   864 ;; *************** function _SearchProcess *****************
   865 ;; Defined at:
   866 ;;		line 506 in file "SensorBoard_PCB.c"
   867 ;; Parameters:    Size  Location     Type
   868 ;;		None
   869 ;; Auto vars:     Size  Location     Type
   870 ;;		None
   871 ;; Return value:  Size  Location     Type
   872 ;;                  1    wreg      void 
   873 ;; Registers used:
   874 ;;		wreg, status,2, status,0, cstack
   875 ;; Tracked objects:
   876 ;;		On entry : 0/0
   877 ;;		On exit  : 0/0
   878 ;;		Unchanged: 0/0
   879 ;; Data sizes:     COMRAM   BANK0   BANK1   BANK2   BANK3   BANK4   BANK5   BANK6   BANK7   BANK8   BANK9  BANK10  BANK1
      +1  BANK12  BANK13  BANK14
   880 ;;      Params:         0       0       0       0       0       0       0       0       0       0       0       0       
      +0       0       0       0
   881 ;;      Locals:         0       0       0       0       0       0       0       0       0       0       0       0       
      +0       0       0       0
   882 ;;      Temps:          0       0       0       0       0       0       0       0       0       0       0       0       
      +0       0       0       0
   883 ;;      Totals:         0       0       0       0       0       0       0       0       0       0       0       0       
      +0       0       0       0
   884 ;;Total ram usage:        0 bytes
   885 ;; Hardware stack levels used: 1
   886 ;; Hardware stack levels required when called: 4
   887 ;; This function calls:
   888 ;;		_I2C2Scan
   889 ;;		_SaveSensor
   890 ;; This function is called by:
   891 ;;		_main
   892 ;; This function uses a non-reentrant model
   893 ;;
   894                           
   895                           	psect	text6
   896  0008A6                     __ptext6:
   897                           	callstack 0
   898  0008A6                     _SearchProcess:
   899                           	callstack 26
   900  0008A6                     
   901                           ;SensorBoard_PCB.c: 509:     {;SensorBoard_PCB.c: 510:         if(I2C2Scan() == 0x00) {L
      +                          ATA = 0xEE; break;}
   902  0008A6  EC71  F004         	call	_I2C2Scan	;wreg free
   903  0008AA  0900               	iorlw	0
   904  0008AC  A4D8               	btfss	status,2,c
   905  0008AE  EF5B  F004         	goto	u1121
   906  0008B2  EF5D  F004         	goto	u1120
   907  0008B6                     u1121:
   908  0008B6  EF61  F004         	goto	l1858
   909  0008BA                     u1120:
   910  0008BA  0EEE               	movlw	238
   911  0008BC  6E83               	movwf	131,c	;volatile
   912  0008BE  EF70  F004         	goto	l309
   913  0008C2                     l1858:
   914                           
   915                           ;SensorBoard_PCB.c: 511:         if(SaveSensor() == 0x00) {LATA = 0xFF; break;} else {LA
      +                          TA = sensorEEADR;}
   916  0008C2  EC39  F000         	call	_SaveSensor	;wreg free
   917  0008C6  0900               	iorlw	0
   918  0008C8  A4D8               	btfss	status,2,c
   919  0008CA  EF69  F004         	goto	u1131
   920  0008CE  EF6B  F004         	goto	u1130
   921  0008D2                     u1131:
   922  0008D2  EF6E  F004         	goto	l307
   923  0008D6                     u1130:
   924  0008D6  6883               	setf	131,c	;volatile
   925  0008D8  EF70  F004         	goto	l309
   926  0008DC                     l307:
   927  0008DC  C02B  FF83         	movff	_sensorEEADR,3971	;volatile
   928  0008E0                     l309:
   929  0008E0  0012               	return		;funcret
   930  0008E2                     __end_of_SearchProcess:
   931                           	callstack 0
   932                           
   933 ;; *************** function _SaveSensor *****************
   934 ;; Defined at:
   935 ;;		line 425 in file "SensorBoard_PCB.c"
   936 ;; Parameters:    Size  Location     Type
   937 ;;		None
   938 ;; Auto vars:     Size  Location     Type
   939 ;;		None
   940 ;; Return value:  Size  Location     Type
   941 ;;                  1    wreg      unsigned char 
   942 ;; Registers used:
   943 ;;		wreg, status,2, status,0, cstack
   944 ;; Tracked objects:
   945 ;;		On entry : 0/0
   946 ;;		On exit  : 0/0
   947 ;;		Unchanged: 0/0
   948 ;; Data sizes:     COMRAM   BANK0   BANK1   BANK2   BANK3   BANK4   BANK5   BANK6   BANK7   BANK8   BANK9  BANK10  BANK1
      +1  BANK12  BANK13  BANK14
   949 ;;      Params:         0       0       0       0       0       0       0       0       0       0       0       0       
      +0       0       0       0
   950 ;;      Locals:         0       0       0       0       0       0       0       0       0       0       0       0       
      +0       0       0       0
   951 ;;      Temps:          0       0       0       0       0       0       0       0       0       0       0       0       
      +0       0       0       0
   952 ;;      Totals:         0       0       0       0       0       0       0       0       0       0       0       0       
      +0       0       0       0
   953 ;;Total ram usage:        0 bytes
   954 ;; Hardware stack levels used: 1
   955 ;; Hardware stack levels required when called: 3
   956 ;; This function calls:
   957 ;;		_I2C2RequestData
   958 ;;		_I2C2Stop
   959 ;;		_I2C2TransmitAddress
   960 ;;		_I2C2TransmitData
   961 ;;		_ReadEEPROM
   962 ;;		_WriteToEEPROM
   963 ;; This function is called by:
   964 ;;		_SearchProcess
   965 ;; This function uses a non-reentrant model
   966 ;;
   967                           
   968                           	psect	text7
   969  000072                     __ptext7:
   970                           	callstack 0
   971  000072                     _SaveSensor:
   972                           	callstack 26
   973  000072                     
   974                           ;SensorBoard_PCB.c: 428:     sensorEEADR = 0x10;
   975  000072  0E10               	movlw	16
   976  000074  6E2B               	movwf	_sensorEEADR^0,c
   977                           
   978                           ;SensorBoard_PCB.c: 429:     while (ReadEEPROM(sensorEEADR) != 0x00)
   979  000076  EF4A  F000         	goto	l1744
   980  00007A                     l1738:
   981                           
   982                           ;SensorBoard_PCB.c: 430:     {;SensorBoard_PCB.c: 431:         sensorEEADR += 2;
   983  00007A  0E02               	movlw	2
   984  00007C  262B               	addwf	_sensorEEADR^0,f,c
   985                           
   986                           ;SensorBoard_PCB.c: 432:         if(sensorEEADR >= 0x20) {return 0x00;}
   987  00007E  0E1F               	movlw	31
   988  000080  642B               	cpfsgt	_sensorEEADR^0,c
   989  000082  EF45  F000         	goto	u911
   990  000086  EF47  F000         	goto	u910
   991  00008A                     u911:
   992  00008A  EF4A  F000         	goto	l1744
   993  00008E                     u910:
   994  00008E                     l1740:
   995  00008E  0E00               	movlw	0
   996  000090  EF61  F001         	goto	l269
   997  000094                     l1744:
   998                           
   999                           ;SensorBoard_PCB.c: 429:     while (ReadEEPROM(sensorEEADR) != 0x00)
  1000  000094  502B               	movf	_sensorEEADR^0,w,c
  1001  000096  EC24  F005         	call	_ReadEEPROM
  1002  00009A  0900               	iorlw	0
  1003  00009C  A4D8               	btfss	status,2,c
  1004  00009E  EF53  F000         	goto	u921
  1005  0000A2  EF55  F000         	goto	u920
  1006  0000A6                     u921:
  1007  0000A6  EF3D  F000         	goto	l1738
  1008  0000AA                     u920:
  1009  0000AA                     
  1010                           ;SensorBoard_PCB.c: 436:     if(I2C2TransmitAddress(scanAddress) == 0x00) {return 0x00;}
  1011  0000AA  502C               	movf	_scanAddress^0,w,c
  1012  0000AC  ECC3  F003         	call	_I2C2TransmitAddress
  1013  0000B0  0900               	iorlw	0
  1014  0000B2  A4D8               	btfss	status,2,c
  1015  0000B4  EF5E  F000         	goto	u931
  1016  0000B8  EF60  F000         	goto	u930
  1017  0000BC                     u931:
  1018  0000BC  EF62  F000         	goto	l1752
  1019  0000C0                     u930:
  1020  0000C0  EF47  F000         	goto	l1740
  1021  0000C4                     l1752:
  1022                           
  1023                           ;SensorBoard_PCB.c: 437:     if(I2C2TransmitData(0x3C) == 0x00) {return 0x00;}
  1024  0000C4  0E3C               	movlw	60
  1025  0000C6  EC34  F004         	call	_I2C2TransmitData
  1026  0000CA  0900               	iorlw	0
  1027  0000CC  A4D8               	btfss	status,2,c
  1028  0000CE  EF6B  F000         	goto	u941
  1029  0000D2  EF6D  F000         	goto	u940
  1030  0000D6                     u941:
  1031  0000D6  EF6F  F000         	goto	l1758
  1032  0000DA                     u940:
  1033  0000DA  EF47  F000         	goto	l1740
  1034  0000DE                     l1758:
  1035                           
  1036                           ;SensorBoard_PCB.c: 438:     I2C2Stop();
  1037  0000DE  EC11  F005         	call	_I2C2Stop	;wreg free
  1038  0000E2                     
  1039                           ;SensorBoard_PCB.c: 441:     if(I2C2RequestData(1, scanAddress | 0x01) == 0x00) {return 
      +                          0x00;}
  1040  0000E2  502C               	movf	_scanAddress^0,w,c
  1041  0000E4  0901               	iorlw	1
  1042  0000E6  6E32               	movwf	I2C2RequestData@readAddr^0,c
  1043  0000E8  0E01               	movlw	1
  1044  0000EA  EC2D  F002         	call	_I2C2RequestData
  1045  0000EE  0900               	iorlw	0
  1046  0000F0  A4D8               	btfss	status,2,c
  1047  0000F2  EF7D  F000         	goto	u951
  1048  0000F6  EF7F  F000         	goto	u950
  1049  0000FA                     u951:
  1050  0000FA  EF81  F000         	goto	l273
  1051  0000FE                     u950:
  1052  0000FE  EF47  F000         	goto	l1740
  1053  000102                     l273:
  1054                           
  1055                           ;SensorBoard_PCB.c: 442:     ID[0] = I2C2Data;
  1056  000102  C025  F01E         	movff	_I2C2Data,_ID
  1057  000106                     
  1058                           ;SensorBoard_PCB.c: 443:     if(I2C2RequestData(2, 0x00) == 0x00) {return 0x00;}
  1059  000106  0E00               	movlw	0
  1060  000108  6E32               	movwf	I2C2RequestData@readAddr^0,c
  1061  00010A  0E02               	movlw	2
  1062  00010C  EC2D  F002         	call	_I2C2RequestData
  1063  000110  0900               	iorlw	0
  1064  000112  A4D8               	btfss	status,2,c
  1065  000114  EF8E  F000         	goto	u961
  1066  000118  EF90  F000         	goto	u960
  1067  00011C                     u961:
  1068  00011C  EF92  F000         	goto	l274
  1069  000120                     u960:
  1070  000120  EF47  F000         	goto	l1740
  1071  000124                     l274:
  1072                           
  1073                           ;SensorBoard_PCB.c: 444:     ID[1] = I2C2Data;
  1074  000124  C025  F01F         	movff	_I2C2Data,_ID+1
  1075  000128                     
  1076                           ;SensorBoard_PCB.c: 445:     if(I2C2RequestData(2, 0x00) == 0x00) {return 0x00;}
  1077  000128  0E00               	movlw	0
  1078  00012A  6E32               	movwf	I2C2RequestData@readAddr^0,c
  1079  00012C  0E02               	movlw	2
  1080  00012E  EC2D  F002         	call	_I2C2RequestData
  1081  000132  0900               	iorlw	0
  1082  000134  A4D8               	btfss	status,2,c
  1083  000136  EF9F  F000         	goto	u971
  1084  00013A  EFA1  F000         	goto	u970
  1085  00013E                     u971:
  1086  00013E  EFA3  F000         	goto	l275
  1087  000142                     u970:
  1088  000142  EF47  F000         	goto	l1740
  1089  000146                     l275:
  1090                           
  1091                           ;SensorBoard_PCB.c: 446:     ID[2] = I2C2Data;
  1092  000146  C025  F020         	movff	_I2C2Data,_ID+2
  1093  00014A                     
  1094                           ;SensorBoard_PCB.c: 447:     if(I2C2RequestData(3, 0x00) == 0x00) {return 0x00;}
  1095  00014A  0E00               	movlw	0
  1096  00014C  6E32               	movwf	I2C2RequestData@readAddr^0,c
  1097  00014E  0E03               	movlw	3
  1098  000150  EC2D  F002         	call	_I2C2RequestData
  1099  000154  0900               	iorlw	0
  1100  000156  A4D8               	btfss	status,2,c
  1101  000158  EFB0  F000         	goto	u981
  1102  00015C  EFB2  F000         	goto	u980
  1103  000160                     u981:
  1104  000160  EFB4  F000         	goto	l276
  1105  000164                     u980:
  1106  000164  EF47  F000         	goto	l1740
  1107  000168                     l276:
  1108                           
  1109                           ;SensorBoard_PCB.c: 448:     ID[3] = I2C2Data;
  1110  000168  C025  F021         	movff	_I2C2Data,_ID+3
  1111  00016C                     
  1112                           ;SensorBoard_PCB.c: 451:     if(I2C2TransmitAddress(scanAddress) == 0x00) {return 0x00;}
  1113  00016C  502C               	movf	_scanAddress^0,w,c
  1114  00016E  ECC3  F003         	call	_I2C2TransmitAddress
  1115  000172  0900               	iorlw	0
  1116  000174  A4D8               	btfss	status,2,c
  1117  000176  EFBF  F000         	goto	u991
  1118  00017A  EFC1  F000         	goto	u990
  1119  00017E                     u991:
  1120  00017E  EFC3  F000         	goto	l1790
  1121  000182                     u990:
  1122  000182  EF47  F000         	goto	l1740
  1123  000186                     l1790:
  1124                           
  1125                           ;SensorBoard_PCB.c: 452:     if(I2C2TransmitData(0x22) == 0x00) {return 0x00;}
  1126  000186  0E22               	movlw	34
  1127  000188  EC34  F004         	call	_I2C2TransmitData
  1128  00018C  0900               	iorlw	0
  1129  00018E  A4D8               	btfss	status,2,c
  1130  000190  EFCC  F000         	goto	u1001
  1131  000194  EFCE  F000         	goto	u1000
  1132  000198                     u1001:
  1133  000198  EFD0  F000         	goto	l1796
  1134  00019C                     u1000:
  1135  00019C  EF47  F000         	goto	l1740
  1136  0001A0                     l1796:
  1137                           
  1138                           ;SensorBoard_PCB.c: 453:     if(I2C2TransmitData(sensorEEADR >> 1) == 0x00) {return 0x00
      +                          ;}
  1139  0001A0  90D8               	bcf	status,0,c
  1140  0001A2  302B               	rrcf	_sensorEEADR^0,w,c
  1141  0001A4  EC34  F004         	call	_I2C2TransmitData
  1142  0001A8  0900               	iorlw	0
  1143  0001AA  A4D8               	btfss	status,2,c
  1144  0001AC  EFDA  F000         	goto	u1011
  1145  0001B0  EFDC  F000         	goto	u1010
  1146  0001B4                     u1011:
  1147  0001B4  EFDE  F000         	goto	l1802
  1148  0001B8                     u1010:
  1149  0001B8  EF47  F000         	goto	l1740
  1150  0001BC                     l1802:
  1151                           
  1152                           ;SensorBoard_PCB.c: 454:     I2C2Stop();
  1153  0001BC  EC11  F005         	call	_I2C2Stop	;wreg free
  1154  0001C0                     
  1155                           ;SensorBoard_PCB.c: 457:     if(ID[0] == 'L' && ID[1] == 'U' && ID[2] == 'N' && ID[3] ==
      +                           'A')
  1156  0001C0  0E4C               	movlw	76
  1157  0001C2  181E               	xorwf	_ID^0,w,c
  1158  0001C4  A4D8               	btfss	status,2,c
  1159  0001C6  EFE7  F000         	goto	u1021
  1160  0001CA  EFE9  F000         	goto	u1020
  1161  0001CE                     u1021:
  1162  0001CE  EF3A  F001         	goto	l1836
  1163  0001D2                     u1020:
  1164  0001D2  0E55               	movlw	85
  1165  0001D4  181F               	xorwf	(_ID+1)^0,w,c
  1166  0001D6  A4D8               	btfss	status,2,c
  1167  0001D8  EFF0  F000         	goto	u1031
  1168  0001DC  EFF2  F000         	goto	u1030
  1169  0001E0                     u1031:
  1170  0001E0  EF3A  F001         	goto	l1836
  1171  0001E4                     u1030:
  1172  0001E4  0E4E               	movlw	78
  1173  0001E6  1820               	xorwf	(_ID+2)^0,w,c
  1174  0001E8  A4D8               	btfss	status,2,c
  1175  0001EA  EFF9  F000         	goto	u1041
  1176  0001EE  EFFB  F000         	goto	u1040
  1177  0001F2                     u1041:
  1178  0001F2  EF3A  F001         	goto	l1836
  1179  0001F6                     u1040:
  1180  0001F6  0E41               	movlw	65
  1181  0001F8  1821               	xorwf	(_ID+3)^0,w,c
  1182  0001FA  A4D8               	btfss	status,2,c
  1183  0001FC  EF02  F001         	goto	u1051
  1184  000200  EF04  F001         	goto	u1050
  1185  000204                     u1051:
  1186  000204  EF3A  F001         	goto	l1836
  1187  000208                     u1050:
  1188  000208                     
  1189                           ;SensorBoard_PCB.c: 458:     {;SensorBoard_PCB.c: 460:         WriteToEEPROM(sensorEEADR
      +                          , 'L');
  1190  000208  0E4C               	movlw	76
  1191  00020A  6E32               	movwf	WriteToEEPROM@val^0,c
  1192  00020C  502B               	movf	_sensorEEADR^0,w,c
  1193  00020E  EC8F  F004         	call	_WriteToEEPROM
  1194  000212                     
  1195                           ;SensorBoard_PCB.c: 461:         WriteToEEPROM(sensorEEADR | 0x01, 1);
  1196  000212  0E01               	movlw	1
  1197  000214  6E32               	movwf	WriteToEEPROM@val^0,c
  1198  000216  502B               	movf	_sensorEEADR^0,w,c
  1199  000218  0901               	iorlw	1
  1200  00021A  EC8F  F004         	call	_WriteToEEPROM
  1201  00021E                     
  1202                           ;SensorBoard_PCB.c: 464:         if(I2C2TransmitAddress(sensorEEADR) == 0x00) {return 0x
      +                          00;}
  1203  00021E  502B               	movf	_sensorEEADR^0,w,c
  1204  000220  ECC3  F003         	call	_I2C2TransmitAddress
  1205  000224  0900               	iorlw	0
  1206  000226  A4D8               	btfss	status,2,c
  1207  000228  EF18  F001         	goto	u1061
  1208  00022C  EF1A  F001         	goto	u1060
  1209  000230                     u1061:
  1210  000230  EF1C  F001         	goto	l1822
  1211  000234                     u1060:
  1212  000234  EF47  F000         	goto	l1740
  1213  000238                     l1822:
  1214                           
  1215                           ;SensorBoard_PCB.c: 465:         if(I2C2TransmitData(0x20) == 0x00) {return 0x00;}
  1216  000238  0E20               	movlw	32
  1217  00023A  EC34  F004         	call	_I2C2TransmitData
  1218  00023E  0900               	iorlw	0
  1219  000240  A4D8               	btfss	status,2,c
  1220  000242  EF25  F001         	goto	u1071
  1221  000246  EF27  F001         	goto	u1070
  1222  00024A                     u1071:
  1223  00024A  EF29  F001         	goto	l1828
  1224  00024E                     u1070:
  1225  00024E  EF47  F000         	goto	l1740
  1226  000252                     l1828:
  1227                           
  1228                           ;SensorBoard_PCB.c: 466:         if(I2C2TransmitData(0x01) == 0x00) {return 0x00;}
  1229  000252  0E01               	movlw	1
  1230  000254  EC34  F004         	call	_I2C2TransmitData
  1231  000258  0900               	iorlw	0
  1232  00025A  A4D8               	btfss	status,2,c
  1233  00025C  EF32  F001         	goto	u1081
  1234  000260  EF34  F001         	goto	u1080
  1235  000264                     u1081:
  1236  000264  EF36  F001         	goto	l1834
  1237  000268                     u1080:
  1238  000268  EF47  F000         	goto	l1740
  1239  00026C                     l1834:
  1240                           
  1241                           ;SensorBoard_PCB.c: 467:         I2C2Stop();
  1242  00026C  EC11  F005         	call	_I2C2Stop	;wreg free
  1243                           
  1244                           ;SensorBoard_PCB.c: 468:     }
  1245  000270  EF60  F001         	goto	l1850
  1246  000274                     l1836:
  1247  000274  0E49               	movlw	73
  1248  000276  181E               	xorwf	_ID^0,w,c
  1249  000278  A4D8               	btfss	status,2,c
  1250  00027A  EF41  F001         	goto	u1091
  1251  00027E  EF43  F001         	goto	u1090
  1252  000282                     u1091:
  1253  000282  EF47  F000         	goto	l1740
  1254  000286                     u1090:
  1255  000286  0E4E               	movlw	78
  1256  000288  181F               	xorwf	(_ID+1)^0,w,c
  1257  00028A  A4D8               	btfss	status,2,c
  1258  00028C  EF4A  F001         	goto	u1101
  1259  000290  EF4C  F001         	goto	u1100
  1260  000294                     u1101:
  1261  000294  EF47  F000         	goto	l1740
  1262  000298                     u1100:
  1263  000298  0E46               	movlw	70
  1264  00029A  1820               	xorwf	(_ID+2)^0,w,c
  1265  00029C  A4D8               	btfss	status,2,c
  1266  00029E  EF53  F001         	goto	u1111
  1267  0002A2  EF55  F001         	goto	u1110
  1268  0002A6                     u1111:
  1269  0002A6  EF47  F000         	goto	l1740
  1270  0002AA                     u1110:
  1271  0002AA                     
  1272                           ;SensorBoard_PCB.c: 470:     {;SensorBoard_PCB.c: 472:         WriteToEEPROM(sensorEEADR
      +                          , 'I');
  1273  0002AA  0E49               	movlw	73
  1274  0002AC  6E32               	movwf	WriteToEEPROM@val^0,c
  1275  0002AE  502B               	movf	_sensorEEADR^0,w,c
  1276  0002B0  EC8F  F004         	call	_WriteToEEPROM
  1277  0002B4                     
  1278                           ;SensorBoard_PCB.c: 473:         WriteToEEPROM(sensorEEADR | 0x01, ID[3]);
  1279  0002B4  C021  F032         	movff	_ID+3,WriteToEEPROM@val
  1280  0002B8  502B               	movf	_sensorEEADR^0,w,c
  1281  0002BA  0901               	iorlw	1
  1282  0002BC  EC8F  F004         	call	_WriteToEEPROM
  1283  0002C0                     l1850:
  1284                           
  1285                           ;SensorBoard_PCB.c: 477:     return 0xFF;
  1286  0002C0  0EFF               	movlw	255
  1287  0002C2                     l269:
  1288  0002C2  0012               	return		;funcret
  1289  0002C4                     __end_of_SaveSensor:
  1290                           	callstack 0
  1291                           
  1292 ;; *************** function _I2C2Scan *****************
  1293 ;; Defined at:
  1294 ;;		line 412 in file "SensorBoard_PCB.c"
  1295 ;; Parameters:    Size  Location     Type
  1296 ;;		None
  1297 ;; Auto vars:     Size  Location     Type
  1298 ;;		None
  1299 ;; Return value:  Size  Location     Type
  1300 ;;                  1    wreg      unsigned char 
  1301 ;; Registers used:
  1302 ;;		wreg, status,2, status,0, cstack
  1303 ;; Tracked objects:
  1304 ;;		On entry : 0/0
  1305 ;;		On exit  : 0/0
  1306 ;;		Unchanged: 0/0
  1307 ;; Data sizes:     COMRAM   BANK0   BANK1   BANK2   BANK3   BANK4   BANK5   BANK6   BANK7   BANK8   BANK9  BANK10  BANK1
      +1  BANK12  BANK13  BANK14
  1308 ;;      Params:         0       0       0       0       0       0       0       0       0       0       0       0       
      +0       0       0       0
  1309 ;;      Locals:         0       0       0       0       0       0       0       0       0       0       0       0       
      +0       0       0       0
  1310 ;;      Temps:          0       0       0       0       0       0       0       0       0       0       0       0       
      +0       0       0       0
  1311 ;;      Totals:         0       0       0       0       0       0       0       0       0       0       0       0       
      +0       0       0       0
  1312 ;;Total ram usage:        0 bytes
  1313 ;; Hardware stack levels used: 1
  1314 ;; Hardware stack levels required when called: 3
  1315 ;; This function calls:
  1316 ;;		_I2C2Stop
  1317 ;;		_I2C2TransmitAddress
  1318 ;; This function is called by:
  1319 ;;		_SearchProcess
  1320 ;; This function uses a non-reentrant model
  1321 ;;
  1322                           
  1323                           	psect	text8
  1324  0008E2                     __ptext8:
  1325                           	callstack 0
  1326  0008E2                     _I2C2Scan:
  1327                           	callstack 26
  1328  0008E2                     
  1329                           ;SensorBoard_PCB.c: 416:     scanAddress = 0x10;
  1330  0008E2  0E10               	movlw	16
  1331  0008E4  6E2C               	movwf	_scanAddress^0,c
  1332  0008E6                     l1208:
  1333                           
  1334                           ;SensorBoard_PCB.c: 419:     {;SensorBoard_PCB.c: 420:         if(I2C2TransmitAddress(sc
      +                          anAddress) == 0xFF) {I2C2Stop(); return scanAddress;} else {scanAddress += 2;}
  1335  0008E6  502C               	movf	_scanAddress^0,w,c
  1336  0008E8  ECC3  F003         	call	_I2C2TransmitAddress
  1337  0008EC  0AFF               	xorlw	255
  1338  0008EE  A4D8               	btfss	status,2,c
  1339  0008F0  EF7C  F004         	goto	u221
  1340  0008F4  EF7E  F004         	goto	u220
  1341  0008F8                     u221:
  1342  0008F8  EF83  F004         	goto	l1218
  1343  0008FC                     u220:
  1344  0008FC  EC11  F005         	call	_I2C2Stop	;wreg free
  1345  000900  502C               	movf	_scanAddress^0,w,c
  1346  000902  EF8E  F004         	goto	l259
  1347  000906                     l1218:
  1348  000906  0E02               	movlw	2
  1349  000908  262C               	addwf	_scanAddress^0,f,c
  1350  00090A                     
  1351                           ;SensorBoard_PCB.c: 421:         if(scanAddress >= 0b10000000) {return 0x00;}
  1352  00090A  0E7F               	movlw	127
  1353  00090C  642C               	cpfsgt	_scanAddress^0,c
  1354  00090E  EF8B  F004         	goto	u231
  1355  000912  EF8D  F004         	goto	u230
  1356  000916                     u231:
  1357  000916  EF73  F004         	goto	l1208
  1358  00091A                     u230:
  1359  00091A  0E00               	movlw	0
  1360  00091C                     l259:
  1361  00091C  0012               	return		;funcret
  1362  00091E                     __end_of_I2C2Scan:
  1363                           	callstack 0
  1364                           
  1365 ;; *************** function _RequestSensorData *****************
  1366 ;; Defined at:
  1367 ;;		line 526 in file "SensorBoard_PCB.c"
  1368 ;; Parameters:    Size  Location     Type
  1369 ;;		None
  1370 ;; Auto vars:     Size  Location     Type
  1371 ;;  i               1   20[COMRAM] unsigned char 
  1372 ;;  byteCount       1   19[COMRAM] unsigned char 
  1373 ;;  i2              1   18[COMRAM] unsigned char 
  1374 ;;  lastSensor      1   17[COMRAM] unsigned char 
  1375 ;;  distanceByte    1   16[COMRAM] unsigned char 
  1376 ;;  sensorID        1   15[COMRAM] unsigned char 
  1377 ;; Return value:  Size  Location     Type
  1378 ;;                  1    wreg      void 
  1379 ;; Registers used:
  1380 ;;		wreg, fsr1l, fsr1h, fsr2l, fsr2h, status,2, status,0, cstack
  1381 ;; Tracked objects:
  1382 ;;		On entry : 0/0
  1383 ;;		On exit  : 0/0
  1384 ;;		Unchanged: 0/0
  1385 ;; Data sizes:     COMRAM   BANK0   BANK1   BANK2   BANK3   BANK4   BANK5   BANK6   BANK7   BANK8   BANK9  BANK10  BANK1
      +1  BANK12  BANK13  BANK14
  1386 ;;      Params:         0       0       0       0       0       0       0       0       0       0       0       0       
      +0       0       0       0
  1387 ;;      Locals:         6       0       0       0       0       0       0       0       0       0       0       0       
      +0       0       0       0
  1388 ;;      Temps:          7       0       0       0       0       0       0       0       0       0       0       0       
      +0       0       0       0
  1389 ;;      Totals:        13       0       0       0       0       0       0       0       0       0       0       0       
      +0       0       0       0
  1390 ;;Total ram usage:       13 bytes
  1391 ;; Hardware stack levels used: 1
  1392 ;; Hardware stack levels required when called: 3
  1393 ;; This function calls:
  1394 ;;		_I2C2RequestData
  1395 ;;		_I2C2Stop
  1396 ;;		_I2C2TransmitAddress
  1397 ;;		_I2C2TransmitData
  1398 ;;		_ReadEEPROM
  1399 ;; This function is called by:
  1400 ;;		_main
  1401 ;; This function uses a non-reentrant model
  1402 ;;
  1403                           
  1404                           	psect	text9
  1405  0002C4                     __ptext9:
  1406                           	callstack 0
  1407  0002C4                     _RequestSensorData:
  1408                           	callstack 27
  1409  0002C4                     
  1410                           ;SensorBoard_PCB.c: 528:     char lastSensor = 0;
  1411  0002C4  0E00               	movlw	0
  1412  0002C6  6E3F               	movwf	RequestSensorData@lastSensor^0,c
  1413                           
  1414                           ;SensorBoard_PCB.c: 530:     char i, i2;;SensorBoard_PCB.c: 531:     char byteCount = 0;
  1415  0002C8  0E00               	movlw	0
  1416  0002CA  6E41               	movwf	RequestSensorData@byteCount^0,c
  1417                           
  1418                           ;SensorBoard_PCB.c: 533:     char sensorID;;SensorBoard_PCB.c: 534:     char distanceByt
      +                          es;;SensorBoard_PCB.c: 537:     for(i = 0x10; i <= 0x1E; i+=2)
  1419  0002CC  0E10               	movlw	16
  1420  0002CE  6E42               	movwf	RequestSensorData@i^0,c
  1421  0002D0                     l1884:
  1422                           
  1423                           ;SensorBoard_PCB.c: 538:     {;SensorBoard_PCB.c: 539:         if(ReadEEPROM(i) != 0) {l
      +                          astSensor = i;}
  1424  0002D0  5042               	movf	RequestSensorData@i^0,w,c
  1425  0002D2  EC24  F005         	call	_ReadEEPROM
  1426  0002D6  0900               	iorlw	0
  1427  0002D8  B4D8               	btfsc	status,2,c
  1428  0002DA  EF71  F001         	goto	u1151
  1429  0002DE  EF73  F001         	goto	u1150
  1430  0002E2                     u1151:
  1431  0002E2  EF75  F001         	goto	l1888
  1432  0002E6                     u1150:
  1433  0002E6  C042  F03F         	movff	RequestSensorData@i,RequestSensorData@lastSensor
  1434  0002EA                     l1888:
  1435                           
  1436                           ;SensorBoard_PCB.c: 540:     }
  1437  0002EA  0E02               	movlw	2
  1438  0002EC  2642               	addwf	RequestSensorData@i^0,f,c
  1439  0002EE  0E1E               	movlw	30
  1440  0002F0  6442               	cpfsgt	RequestSensorData@i^0,c
  1441  0002F2  EF7D  F001         	goto	u1161
  1442  0002F6  EF7F  F001         	goto	u1160
  1443  0002FA                     u1161:
  1444  0002FA  EF68  F001         	goto	l1884
  1445  0002FE                     u1160:
  1446  0002FE                     
  1447                           ;SensorBoard_PCB.c: 542:     for(i = 0x10; i <= lastSensor; i+=2)
  1448  0002FE  0E10               	movlw	16
  1449  000300  6E42               	movwf	RequestSensorData@i^0,c
  1450  000302  EF21  F002         	goto	l320
  1451  000306                     l1892:
  1452                           
  1453                           ;SensorBoard_PCB.c: 543:     {;SensorBoard_PCB.c: 544:         sensorID = ReadEEPROM(i);
  1454  000306  5042               	movf	RequestSensorData@i^0,w,c
  1455  000308  EC24  F005         	call	_ReadEEPROM
  1456  00030C  6E3D               	movwf	RequestSensorData@sensorID^0,c
  1457  00030E                     
  1458                           ;SensorBoard_PCB.c: 545:         distanceBytes = ReadEEPROM(i | 0x01);
  1459  00030E  5042               	movf	RequestSensorData@i^0,w,c
  1460  000310  0901               	iorlw	1
  1461  000312  EC24  F005         	call	_ReadEEPROM
  1462  000316  6E3E               	movwf	RequestSensorData@distanceBytes^0,c
  1463  000318                     
  1464                           ;SensorBoard_PCB.c: 547:         if(I2C2TransmitAddress(i) == 0x00) {break;}
  1465  000318  5042               	movf	RequestSensorData@i^0,w,c
  1466  00031A  ECC3  F003         	call	_I2C2TransmitAddress
  1467  00031E  0900               	iorlw	0
  1468  000320  A4D8               	btfss	status,2,c
  1469  000322  EF95  F001         	goto	u1171
  1470  000326  EF97  F001         	goto	u1170
  1471  00032A                     u1171:
  1472  00032A  EF99  F001         	goto	l1900
  1473  00032E                     u1170:
  1474  00032E  EF2A  F002         	goto	l323
  1475  000332                     l1900:
  1476                           
  1477                           ;SensorBoard_PCB.c: 548:         if(I2C2TransmitData(0x00) == 0x00) {break;}
  1478  000332  0E00               	movlw	0
  1479  000334  EC34  F004         	call	_I2C2TransmitData
  1480  000338  0900               	iorlw	0
  1481  00033A  A4D8               	btfss	status,2,c
  1482  00033C  EFA2  F001         	goto	u1181
  1483  000340  EFA4  F001         	goto	u1180
  1484  000344                     u1181:
  1485  000344  EFA6  F001         	goto	l1904
  1486  000348                     u1180:
  1487  000348  EF2A  F002         	goto	l323
  1488  00034C                     l1904:
  1489                           
  1490                           ;SensorBoard_PCB.c: 549:         I2C2Stop();
  1491  00034C  EC11  F005         	call	_I2C2Stop	;wreg free
  1492  000350                     
  1493                           ;SensorBoard_PCB.c: 551:         if(I2C2RequestData(1, i | 0x01) == 0x00) {break;}
  1494  000350  5042               	movf	RequestSensorData@i^0,w,c
  1495  000352  0901               	iorlw	1
  1496  000354  6E32               	movwf	I2C2RequestData@readAddr^0,c
  1497  000356  0E01               	movlw	1
  1498  000358  EC2D  F002         	call	_I2C2RequestData
  1499  00035C  0900               	iorlw	0
  1500  00035E  A4D8               	btfss	status,2,c
  1501  000360  EFB4  F001         	goto	u1191
  1502  000364  EFB6  F001         	goto	u1190
  1503  000368                     u1191:
  1504  000368  EFB8  F001         	goto	l325
  1505  00036C                     u1190:
  1506  00036C  EF2A  F002         	goto	l323
  1507  000370                     l325:
  1508                           
  1509                           ;SensorBoard_PCB.c: 552:         distData[0] = I2C2Data;
  1510  000370  C025  F022         	movff	_I2C2Data,_distData
  1511  000374                     
  1512                           ;SensorBoard_PCB.c: 553:         if(I2C2RequestData(2, 0x00) == 0x00) {break;}
  1513  000374  0E00               	movlw	0
  1514  000376  6E32               	movwf	I2C2RequestData@readAddr^0,c
  1515  000378  0E02               	movlw	2
  1516  00037A  EC2D  F002         	call	_I2C2RequestData
  1517  00037E  0900               	iorlw	0
  1518  000380  A4D8               	btfss	status,2,c
  1519  000382  EFC5  F001         	goto	u1201
  1520  000386  EFC7  F001         	goto	u1200
  1521  00038A                     u1201:
  1522  00038A  EFC9  F001         	goto	l326
  1523  00038E                     u1200:
  1524  00038E  EF2A  F002         	goto	l323
  1525  000392                     l326:
  1526                           
  1527                           ;SensorBoard_PCB.c: 554:         distData[1] = I2C2Data;
  1528  000392  C025  F023         	movff	_I2C2Data,_distData+1
  1529  000396                     
  1530                           ;SensorBoard_PCB.c: 555:         if(I2C2RequestData(3, 0x00) == 0x00) {break;}
  1531  000396  0E00               	movlw	0
  1532  000398  6E32               	movwf	I2C2RequestData@readAddr^0,c
  1533  00039A  0E03               	movlw	3
  1534  00039C  EC2D  F002         	call	_I2C2RequestData
  1535  0003A0  0900               	iorlw	0
  1536  0003A2  A4D8               	btfss	status,2,c
  1537  0003A4  EFD6  F001         	goto	u1211
  1538  0003A8  EFD8  F001         	goto	u1210
  1539  0003AC                     u1211:
  1540  0003AC  EFDA  F001         	goto	l327
  1541  0003B0                     u1210:
  1542  0003B0  EF2A  F002         	goto	l323
  1543  0003B4                     l327:
  1544                           
  1545                           ;SensorBoard_PCB.c: 556:         distData[2] = I2C2Data;
  1546  0003B4  C025  F024         	movff	_I2C2Data,_distData+2
  1547  0003B8                     
  1548                           ;SensorBoard_PCB.c: 558:         if(sensorID == 'L') {if(distData[1] != 0) {distData[0] 
      +                          = 0xFF;}}
  1549  0003B8  0E4C               	movlw	76
  1550  0003BA  183D               	xorwf	RequestSensorData@sensorID^0,w,c
  1551  0003BC  A4D8               	btfss	status,2,c
  1552  0003BE  EFE3  F001         	goto	u1221
  1553  0003C2  EFE5  F001         	goto	u1220
  1554  0003C6                     u1221:
  1555  0003C6  EFEE  F001         	goto	l1924
  1556  0003CA                     u1220:
  1557  0003CA  5023               	movf	(_distData+1)^0,w,c
  1558  0003CC  B4D8               	btfsc	status,2,c
  1559  0003CE  EFEB  F001         	goto	u1231
  1560  0003D2  EFED  F001         	goto	u1230
  1561  0003D6                     u1231:
  1562  0003D6  EFEE  F001         	goto	l1924
  1563  0003DA                     u1230:
  1564  0003DA  6822               	setf	_distData^0,c
  1565  0003DC                     l1924:
  1566                           
  1567                           ;SensorBoard_PCB.c: 560:         for(i2 = 0; i2 <= (distanceBytes - 1); i2++)
  1568  0003DC  0E00               	movlw	0
  1569  0003DE  6E40               	movwf	RequestSensorData@i2^0,c
  1570  0003E0  EF02  F002         	goto	l1932
  1571  0003E4                     l1926:
  1572                           
  1573                           ;SensorBoard_PCB.c: 561:         {;SensorBoard_PCB.c: 562:             byteCount++;
  1574  0003E4  2A41               	incf	RequestSensorData@byteCount^0,f,c
  1575  0003E6                     
  1576                           ;SensorBoard_PCB.c: 563:             I2C1Registers[byteCount] = distData[i2];
  1577  0003E6  0E22               	movlw	low _distData
  1578  0003E8  2440               	addwf	RequestSensorData@i2^0,w,c
  1579  0003EA  6ED9               	movwf	fsr2l,c
  1580  0003EC  6ADA               	clrf	fsr2h,c
  1581  0003EE  0E00               	movlw	high _distData
  1582  0003F0  22DA               	addwfc	fsr2h,f,c
  1583  0003F2  0E01               	movlw	low _I2C1Registers
  1584  0003F4  2441               	addwf	RequestSensorData@byteCount^0,w,c
  1585  0003F6  6EE1               	movwf	fsr1l,c
  1586  0003F8  6AE2               	clrf	fsr1h,c
  1587  0003FA  0E00               	movlw	high _I2C1Registers
  1588  0003FC  22E2               	addwfc	fsr1h,f,c
  1589  0003FE  CFDF FFE7          	movff	indf2,indf1
  1590  000402                     
  1591                           ;SensorBoard_PCB.c: 564:         }
  1592  000402  2A40               	incf	RequestSensorData@i2^0,f,c
  1593  000404                     l1932:
  1594  000404  5040               	movf	RequestSensorData@i2^0,w,c
  1595  000406  6E36               	movwf	??_RequestSensorData^0,c
  1596  000408  6A37               	clrf	(??_RequestSensorData+1)^0,c
  1597  00040A  0EFF               	movlw	255
  1598  00040C  6E38               	movwf	(??_RequestSensorData+2)^0,c
  1599  00040E  0EFF               	movlw	255
  1600  000410  6E39               	movwf	(??_RequestSensorData+3)^0,c
  1601  000412  503E               	movf	RequestSensorData@distanceBytes^0,w,c
  1602  000414  6E3A               	movwf	(??_RequestSensorData+4)^0,c
  1603  000416  6A3B               	clrf	(??_RequestSensorData+5)^0,c
  1604  000418  5038               	movf	(??_RequestSensorData+2)^0,w,c
  1605  00041A  263A               	addwf	(??_RequestSensorData+4)^0,f,c
  1606  00041C  5039               	movf	(??_RequestSensorData+3)^0,w,c
  1607  00041E  223B               	addwfc	(??_RequestSensorData+5)^0,f,c
  1608  000420  5036               	movf	??_RequestSensorData^0,w,c
  1609  000422  5C3A               	subwf	(??_RequestSensorData+4)^0,w,c
  1610  000424  503B               	movf	(??_RequestSensorData+5)^0,w,c
  1611  000426  0A80               	xorlw	128
  1612  000428  6E3C               	movwf	(??_RequestSensorData+6)^0,c
  1613  00042A  5037               	movf	(??_RequestSensorData+1)^0,w,c
  1614  00042C  0A80               	xorlw	128
  1615  00042E  583C               	subwfb	(??_RequestSensorData+6)^0,w,c
  1616  000430  B0D8               	btfsc	status,0,c
  1617  000432  EF1D  F002         	goto	u1241
  1618  000436  EF1F  F002         	goto	u1240
  1619  00043A                     u1241:
  1620  00043A  EFF2  F001         	goto	l1926
  1621  00043E                     u1240:
  1622  00043E                     
  1623                           ;SensorBoard_PCB.c: 565:     }
  1624  00043E  0E02               	movlw	2
  1625  000440  2642               	addwf	RequestSensorData@i^0,f,c
  1626  000442                     l320:
  1627  000442  5042               	movf	RequestSensorData@i^0,w,c
  1628  000444  5C3F               	subwf	RequestSensorData@lastSensor^0,w,c
  1629  000446  B0D8               	btfsc	status,0,c
  1630  000448  EF28  F002         	goto	u1251
  1631  00044C  EF2A  F002         	goto	u1250
  1632  000450                     u1251:
  1633  000450  EF83  F001         	goto	l1892
  1634  000454                     u1250:
  1635  000454                     l323:
  1636                           
  1637                           ;SensorBoard_PCB.c: 566:     I2C1Registers[0] = byteCount;
  1638  000454  C041  F001         	movff	RequestSensorData@byteCount,_I2C1Registers
  1639  000458  0012               	return		;funcret
  1640  00045A                     __end_of_RequestSensorData:
  1641                           	callstack 0
  1642                           
  1643 ;; *************** function _ReadEEPROM *****************
  1644 ;; Defined at:
  1645 ;;		line 304 in file "SensorBoard_PCB.c"
  1646 ;; Parameters:    Size  Location     Type
  1647 ;;  address         1    wreg     unsigned char 
  1648 ;; Auto vars:     Size  Location     Type
  1649 ;;  address         1    4[COMRAM] unsigned char 
  1650 ;; Return value:  Size  Location     Type
  1651 ;;                  1    wreg      unsigned char 
  1652 ;; Registers used:
  1653 ;;		wreg, status,2
  1654 ;; Tracked objects:
  1655 ;;		On entry : 0/0
  1656 ;;		On exit  : 0/0
  1657 ;;		Unchanged: 0/0
  1658 ;; Data sizes:     COMRAM   BANK0   BANK1   BANK2   BANK3   BANK4   BANK5   BANK6   BANK7   BANK8   BANK9  BANK10  BANK1
      +1  BANK12  BANK13  BANK14
  1659 ;;      Params:         0       0       0       0       0       0       0       0       0       0       0       0       
      +0       0       0       0
  1660 ;;      Locals:         1       0       0       0       0       0       0       0       0       0       0       0       
      +0       0       0       0
  1661 ;;      Temps:          0       0       0       0       0       0       0       0       0       0       0       0       
      +0       0       0       0
  1662 ;;      Totals:         1       0       0       0       0       0       0       0       0       0       0       0       
      +0       0       0       0
  1663 ;;Total ram usage:        1 bytes
  1664 ;; Hardware stack levels used: 1
  1665 ;; Hardware stack levels required when called: 2
  1666 ;; This function calls:
  1667 ;;		Nothing
  1668 ;; This function is called by:
  1669 ;;		_SaveSensor
  1670 ;;		_RequestSensorData
  1671 ;; This function uses a non-reentrant model
  1672 ;;
  1673                           
  1674                           	psect	text10
  1675  000A48                     __ptext10:
  1676                           	callstack 0
  1677  000A48                     _ReadEEPROM:
  1678                           	callstack 26
  1679                           
  1680                           ;incstack = 0
  1681                           ;ReadEEPROM@address stored from wreg
  1682  000A48  6E32               	movwf	ReadEEPROM@address^0,c
  1683  000A4A                     
  1684                           ;SensorBoard_PCB.c: 304: char ReadEEPROM(char address);SensorBoard_PCB.c: 305: {;SensorB
      +                          oard_PCB.c: 306:     NVMADR = address;
  1685  000A4A  C032  FF7E         	movff	ReadEEPROM@address,3966	;volatile
  1686  000A4E  6A7F               	clrf	127,c	;volatile
  1687  000A50                     
  1688                           ;SensorBoard_PCB.c: 307:     NVMCON1bits.RD = 1;
  1689  000A50  8081               	bsf	129,0,c	;volsfr
  1690  000A52                     
  1691                           ;SensorBoard_PCB.c: 308:     return NVMDAT;
  1692  000A52  5080               	movf	128,w,c	;volatile
  1693  000A54  0012               	return		;funcret
  1694  000A56                     __end_of_ReadEEPROM:
  1695                           	callstack 0
  1696                           
  1697 ;; *************** function _I2C2TransmitData *****************
  1698 ;; Defined at:
  1699 ;;		line 329 in file "SensorBoard_PCB.c"
  1700 ;; Parameters:    Size  Location     Type
  1701 ;;  data            1    wreg     unsigned char 
  1702 ;; Auto vars:     Size  Location     Type
  1703 ;;  data            1    4[COMRAM] unsigned char 
  1704 ;; Return value:  Size  Location     Type
  1705 ;;                  1    wreg      unsigned char 
  1706 ;; Registers used:
  1707 ;;		wreg
  1708 ;; Tracked objects:
  1709 ;;		On entry : 0/0
  1710 ;;		On exit  : 0/0
  1711 ;;		Unchanged: 0/0
  1712 ;; Data sizes:     COMRAM   BANK0   BANK1   BANK2   BANK3   BANK4   BANK5   BANK6   BANK7   BANK8   BANK9  BANK10  BANK1
      +1  BANK12  BANK13  BANK14
  1713 ;;      Params:         0       0       0       0       0       0       0       0       0       0       0       0       
      +0       0       0       0
  1714 ;;      Locals:         1       0       0       0       0       0       0       0       0       0       0       0       
      +0       0       0       0
  1715 ;;      Temps:          0       0       0       0       0       0       0       0       0       0       0       0       
      +0       0       0       0
  1716 ;;      Totals:         1       0       0       0       0       0       0       0       0       0       0       0       
      +0       0       0       0
  1717 ;;Total ram usage:        1 bytes
  1718 ;; Hardware stack levels used: 1
  1719 ;; Hardware stack levels required when called: 2
  1720 ;; This function calls:
  1721 ;;		Nothing
  1722 ;; This function is called by:
  1723 ;;		_SaveSensor
  1724 ;;		_RequestSensorData
  1725 ;; This function uses a non-reentrant model
  1726 ;;
  1727                           
  1728                           	psect	text11
  1729  000868                     __ptext11:
  1730                           	callstack 0
  1731  000868                     _I2C2TransmitData:
  1732                           	callstack 26
  1733                           
  1734                           ;incstack = 0
  1735                           ;I2C2TransmitData@data stored from wreg
  1736  000868  6E32               	movwf	I2C2TransmitData@data^0,c
  1737  00086A                     
  1738                           ;SensorBoard_PCB.c: 329: char I2C2TransmitData (char data);SensorBoard_PCB.c: 330: {;Sen
      +                          sorBoard_PCB.c: 331:     SSP2BUF = data;
  1739  00086A  C032  FE92         	movff	I2C2TransmitData@data,3730	;volatile
  1740  00086E                     l201:
  1741  00086E  010E               	movlb	14	; () banked
  1742  000870  B595               	btfsc	149,2,b	;volatile
  1743  000872  EF3D  F004         	goto	u61
  1744  000876  EF3F  F004         	goto	u60
  1745  00087A                     u61:
  1746  00087A  EF37  F004         	goto	l201
  1747  00087E                     u60:
  1748  00087E                     
  1749                           ; BSR set to: 14
  1750                           ;SensorBoard_PCB.c: 334:     if(SSP2CON2bits.ACKSTAT == 1)
  1751  00087E  AD97               	btfss	151,6,b	;volatile
  1752  000880  EF44  F004         	goto	u71
  1753  000884  EF46  F004         	goto	u70
  1754  000888                     u71:
  1755  000888  EF51  F004         	goto	l1106
  1756  00088C                     u70:
  1757  00088C                     
  1758                           ; BSR set to: 14
  1759                           ;SensorBoard_PCB.c: 335:     {;SensorBoard_PCB.c: 336:         SSP2CON2bits.PEN = 1;
  1760  00088C  8597               	bsf	151,2,b	;volatile
  1761  00088E                     l205:
  1762                           
  1763                           ; BSR set to: 14
  1764  00088E  B597               	btfsc	151,2,b	;volatile
  1765  000890  EF4C  F004         	goto	u81
  1766  000894  EF4E  F004         	goto	u80
  1767  000898                     u81:
  1768  000898  EF47  F004         	goto	l205
  1769  00089C                     u80:
  1770  00089C                     
  1771                           ; BSR set to: 14
  1772                           ;SensorBoard_PCB.c: 338:         return 0x00;
  1773  00089C  0E00               	movlw	0
  1774  00089E  EF52  F004         	goto	l208
  1775  0008A2                     l1106:
  1776                           
  1777                           ; BSR set to: 14
  1778                           ;SensorBoard_PCB.c: 341:     return 0xFF;
  1779  0008A2  0EFF               	movlw	255
  1780  0008A4                     l208:
  1781                           
  1782                           ; BSR set to: 14
  1783  0008A4  0012               	return		;funcret
  1784  0008A6                     __end_of_I2C2TransmitData:
  1785                           	callstack 0
  1786                           
  1787 ;; *************** function _I2C2TransmitAddress *****************
  1788 ;; Defined at:
  1789 ;;		line 311 in file "SensorBoard_PCB.c"
  1790 ;; Parameters:    Size  Location     Type
  1791 ;;  addr            1    wreg     unsigned char 
  1792 ;; Auto vars:     Size  Location     Type
  1793 ;;  addr            1    4[COMRAM] unsigned char 
  1794 ;; Return value:  Size  Location     Type
  1795 ;;                  1    wreg      unsigned char 
  1796 ;; Registers used:
  1797 ;;		wreg
  1798 ;; Tracked objects:
  1799 ;;		On entry : 0/0
  1800 ;;		On exit  : 0/0
  1801 ;;		Unchanged: 0/0
  1802 ;; Data sizes:     COMRAM   BANK0   BANK1   BANK2   BANK3   BANK4   BANK5   BANK6   BANK7   BANK8   BANK9  BANK10  BANK1
      +1  BANK12  BANK13  BANK14
  1803 ;;      Params:         0       0       0       0       0       0       0       0       0       0       0       0       
      +0       0       0       0
  1804 ;;      Locals:         1       0       0       0       0       0       0       0       0       0       0       0       
      +0       0       0       0
  1805 ;;      Temps:          0       0       0       0       0       0       0       0       0       0       0       0       
      +0       0       0       0
  1806 ;;      Totals:         1       0       0       0       0       0       0       0       0       0       0       0       
      +0       0       0       0
  1807 ;;Total ram usage:        1 bytes
  1808 ;; Hardware stack levels used: 1
  1809 ;; Hardware stack levels required when called: 2
  1810 ;; This function calls:
  1811 ;;		Nothing
  1812 ;; This function is called by:
  1813 ;;		_I2C2Scan
  1814 ;;		_SaveSensor
  1815 ;;		_RequestSensorData
  1816 ;; This function uses a non-reentrant model
  1817 ;;
  1818                           
  1819                           	psect	text12
  1820  000786                     __ptext12:
  1821                           	callstack 0
  1822  000786                     _I2C2TransmitAddress:
  1823                           	callstack 26
  1824                           
  1825                           ; BSR set to: 14
  1826                           ;incstack = 0
  1827                           ;I2C2TransmitAddress@addr stored from wreg
  1828  000786  6E32               	movwf	I2C2TransmitAddress@addr^0,c
  1829  000788                     
  1830                           ;SensorBoard_PCB.c: 311: char I2C2TransmitAddress(char addr);SensorBoard_PCB.c: 312: {;S
      +                          ensorBoard_PCB.c: 313:     SSP2CON2bits.SEN = 1;
  1831  000788  010E               	movlb	14	; () banked
  1832  00078A  8197               	bsf	151,0,b	;volatile
  1833  00078C                     l188:
  1834                           
  1835                           ; BSR set to: 14
  1836  00078C  B197               	btfsc	151,0,b	;volatile
  1837  00078E  EFCB  F003         	goto	u21
  1838  000792  EFCD  F003         	goto	u20
  1839  000796                     u21:
  1840  000796  EFC6  F003         	goto	l188
  1841  00079A                     u20:
  1842  00079A                     
  1843                           ; BSR set to: 14
  1844                           ;SensorBoard_PCB.c: 316:     SSP2BUF = addr;
  1845  00079A  C032  FE92         	movff	I2C2TransmitAddress@addr,3730	;volatile
  1846  00079E                     l191:
  1847                           
  1848                           ; BSR set to: 14
  1849  00079E  B595               	btfsc	149,2,b	;volatile
  1850  0007A0  EFD4  F003         	goto	u31
  1851  0007A4  EFD6  F003         	goto	u30
  1852  0007A8                     u31:
  1853  0007A8  EFCF  F003         	goto	l191
  1854  0007AC                     u30:
  1855  0007AC                     
  1856                           ; BSR set to: 14
  1857                           ;SensorBoard_PCB.c: 319:     if(SSP2CON2bits.ACKSTAT == 1)
  1858  0007AC  AD97               	btfss	151,6,b	;volatile
  1859  0007AE  EFDB  F003         	goto	u41
  1860  0007B2  EFDD  F003         	goto	u40
  1861  0007B6                     u41:
  1862  0007B6  EFE8  F003         	goto	l1094
  1863  0007BA                     u40:
  1864  0007BA                     
  1865                           ; BSR set to: 14
  1866                           ;SensorBoard_PCB.c: 320:     {;SensorBoard_PCB.c: 321:         SSP2CON2bits.PEN = 1;
  1867  0007BA  8597               	bsf	151,2,b	;volatile
  1868  0007BC                     l195:
  1869                           
  1870                           ; BSR set to: 14
  1871  0007BC  B597               	btfsc	151,2,b	;volatile
  1872  0007BE  EFE3  F003         	goto	u51
  1873  0007C2  EFE5  F003         	goto	u50
  1874  0007C6                     u51:
  1875  0007C6  EFDE  F003         	goto	l195
  1876  0007CA                     u50:
  1877  0007CA                     
  1878                           ; BSR set to: 14
  1879                           ;SensorBoard_PCB.c: 323:         return 0x00;
  1880  0007CA  0E00               	movlw	0
  1881  0007CC  EFE9  F003         	goto	l198
  1882  0007D0                     l1094:
  1883                           
  1884                           ; BSR set to: 14
  1885                           ;SensorBoard_PCB.c: 326:     return 0xFF;
  1886  0007D0  0EFF               	movlw	255
  1887  0007D2                     l198:
  1888                           
  1889                           ; BSR set to: 14
  1890  0007D2  0012               	return		;funcret
  1891  0007D4                     __end_of_I2C2TransmitAddress:
  1892                           	callstack 0
  1893                           
  1894 ;; *************** function _I2C2Stop *****************
  1895 ;; Defined at:
  1896 ;;		line 406 in file "SensorBoard_PCB.c"
  1897 ;; Parameters:    Size  Location     Type
  1898 ;;		None
  1899 ;; Auto vars:     Size  Location     Type
  1900 ;;		None
  1901 ;; Return value:  Size  Location     Type
  1902 ;;                  1    wreg      void 
  1903 ;; Registers used:
  1904 ;;		None
  1905 ;; Tracked objects:
  1906 ;;		On entry : 0/0
  1907 ;;		On exit  : 0/0
  1908 ;;		Unchanged: 0/0
  1909 ;; Data sizes:     COMRAM   BANK0   BANK1   BANK2   BANK3   BANK4   BANK5   BANK6   BANK7   BANK8   BANK9  BANK10  BANK1
      +1  BANK12  BANK13  BANK14
  1910 ;;      Params:         0       0       0       0       0       0       0       0       0       0       0       0       
      +0       0       0       0
  1911 ;;      Locals:         0       0       0       0       0       0       0       0       0       0       0       0       
      +0       0       0       0
  1912 ;;      Temps:          0       0       0       0       0       0       0       0       0       0       0       0       
      +0       0       0       0
  1913 ;;      Totals:         0       0       0       0       0       0       0       0       0       0       0       0       
      +0       0       0       0
  1914 ;;Total ram usage:        0 bytes
  1915 ;; Hardware stack levels used: 1
  1916 ;; Hardware stack levels required when called: 2
  1917 ;; This function calls:
  1918 ;;		Nothing
  1919 ;; This function is called by:
  1920 ;;		_I2C2Scan
  1921 ;;		_SaveSensor
  1922 ;;		_RequestSensorData
  1923 ;; This function uses a non-reentrant model
  1924 ;;
  1925                           
  1926                           	psect	text13
  1927  000A22                     __ptext13:
  1928                           	callstack 0
  1929  000A22                     _I2C2Stop:
  1930                           	callstack 26
  1931  000A22                     
  1932                           ;SensorBoard_PCB.c: 408:     SSP2CON2bits.PEN = 1;
  1933  000A22  010E               	movlb	14	; () banked
  1934  000A24  8597               	bsf	151,2,b	;volatile
  1935  000A26                     l251:
  1936                           
  1937                           ; BSR set to: 14
  1938  000A26  B597               	btfsc	151,2,b	;volatile
  1939  000A28  EF18  F005         	goto	u201
  1940  000A2C  EF1A  F005         	goto	u200
  1941  000A30                     u201:
  1942  000A30  EF13  F005         	goto	l251
  1943  000A34                     u200:
  1944  000A34                     
  1945                           ; BSR set to: 14
  1946  000A34  0012               	return		;funcret
  1947  000A36                     __end_of_I2C2Stop:
  1948                           	callstack 0
  1949                           
  1950 ;; *************** function _I2C2RequestData *****************
  1951 ;; Defined at:
  1952 ;;		line 344 in file "SensorBoard_PCB.c"
  1953 ;; Parameters:    Size  Location     Type
  1954 ;;  function        1    wreg     unsigned char 
  1955 ;;  readAddr        1    4[COMRAM] unsigned char 
  1956 ;; Auto vars:     Size  Location     Type
  1957 ;;  function        1    7[COMRAM] unsigned char 
  1958 ;; Return value:  Size  Location     Type
  1959 ;;                  1    wreg      unsigned char 
  1960 ;; Registers used:
  1961 ;;		wreg, status,2, status,0
  1962 ;; Tracked objects:
  1963 ;;		On entry : 0/0
  1964 ;;		On exit  : 0/0
  1965 ;;		Unchanged: 0/0
  1966 ;; Data sizes:     COMRAM   BANK0   BANK1   BANK2   BANK3   BANK4   BANK5   BANK6   BANK7   BANK8   BANK9  BANK10  BANK1
      +1  BANK12  BANK13  BANK14
  1967 ;;      Params:         1       0       0       0       0       0       0       0       0       0       0       0       
      +0       0       0       0
  1968 ;;      Locals:         1       0       0       0       0       0       0       0       0       0       0       0       
      +0       0       0       0
  1969 ;;      Temps:          2       0       0       0       0       0       0       0       0       0       0       0       
      +0       0       0       0
  1970 ;;      Totals:         4       0       0       0       0       0       0       0       0       0       0       0       
      +0       0       0       0
  1971 ;;Total ram usage:        4 bytes
  1972 ;; Hardware stack levels used: 1
  1973 ;; Hardware stack levels required when called: 2
  1974 ;; This function calls:
  1975 ;;		Nothing
  1976 ;; This function is called by:
  1977 ;;		_SaveSensor
  1978 ;;		_RequestSensorData
  1979 ;; This function uses a non-reentrant model
  1980 ;;
  1981                           
  1982                           	psect	text14
  1983  00045A                     __ptext14:
  1984                           	callstack 0
  1985  00045A                     _I2C2RequestData:
  1986                           	callstack 26
  1987                           
  1988                           ; BSR set to: 14
  1989                           ;incstack = 0
  1990                           ;I2C2RequestData@function stored from wreg
  1991  00045A  6E35               	movwf	I2C2RequestData@function^0,c
  1992  00045C                     
  1993                           ;SensorBoard_PCB.c: 344: char I2C2RequestData (char function, char readAddr);SensorBoard
      +                          _PCB.c: 345: {;SensorBoard_PCB.c: 346:     switch (function)
  1994  00045C  EF9E  F002         	goto	l1728
  1995  000460                     l212:
  1996                           
  1997                           ;SensorBoard_PCB.c: 353:             SSP2CON2bits.SEN = 1;
  1998  000460  010E               	movlb	14	; () banked
  1999  000462  8197               	bsf	151,0,b	;volatile
  2000  000464                     l213:
  2001                           
  2002                           ; BSR set to: 14
  2003  000464  B197               	btfsc	151,0,b	;volatile
  2004  000466  EF37  F002         	goto	u801
  2005  00046A  EF39  F002         	goto	u800
  2006  00046E                     u801:
  2007  00046E  EF32  F002         	goto	l213
  2008  000472                     u800:
  2009  000472                     
  2010                           ; BSR set to: 14
  2011                           ;SensorBoard_PCB.c: 356:             SSP2BUF = readAddr;
  2012  000472  C032  FE92         	movff	I2C2RequestData@readAddr,3730	;volatile
  2013  000476                     l216:
  2014                           
  2015                           ; BSR set to: 14
  2016  000476  B595               	btfsc	149,2,b	;volatile
  2017  000478  EF40  F002         	goto	u811
  2018  00047C  EF42  F002         	goto	u810
  2019  000480                     u811:
  2020  000480  EF3B  F002         	goto	l216
  2021  000484                     u810:
  2022  000484                     
  2023                           ; BSR set to: 14
  2024                           ;SensorBoard_PCB.c: 359:             if(SSP2CON2bits.ACKSTAT == 1)
  2025  000484  AD97               	btfss	151,6,b	;volatile
  2026  000486  EF47  F002         	goto	u821
  2027  00048A  EF49  F002         	goto	u820
  2028  00048E                     u821:
  2029  00048E  EF54  F002         	goto	l219
  2030  000492                     u820:
  2031  000492                     
  2032                           ; BSR set to: 14
  2033                           ;SensorBoard_PCB.c: 360:             {;SensorBoard_PCB.c: 361:                 SSP2CON2b
      +                          its.PEN = 1;
  2034  000492  8597               	bsf	151,2,b	;volatile
  2035  000494                     l220:
  2036                           
  2037                           ; BSR set to: 14
  2038  000494  B597               	btfsc	151,2,b	;volatile
  2039  000496  EF4F  F002         	goto	u831
  2040  00049A  EF51  F002         	goto	u830
  2041  00049E                     u831:
  2042  00049E  EF4A  F002         	goto	l220
  2043  0004A2                     u830:
  2044  0004A2                     l1698:
  2045                           
  2046                           ;SensorBoard_PCB.c: 363:                 return 0x00;
  2047  0004A2  0E00               	movlw	0
  2048  0004A4  EFB7  F002         	goto	l223
  2049  0004A8                     l219:
  2050                           
  2051                           ; BSR set to: 14
  2052                           ;SensorBoard_PCB.c: 366:             SSP2CON2bits.RCEN = 1;
  2053  0004A8  8797               	bsf	151,3,b	;volatile
  2054  0004AA                     l224:
  2055                           
  2056                           ; BSR set to: 14
  2057  0004AA  B797               	btfsc	151,3,b	;volatile
  2058  0004AC  EF5A  F002         	goto	u841
  2059  0004B0  EF5C  F002         	goto	u840
  2060  0004B4                     u841:
  2061  0004B4  EF55  F002         	goto	l224
  2062  0004B8                     u840:
  2063  0004B8                     
  2064                           ; BSR set to: 14
  2065                           ;SensorBoard_PCB.c: 369:             I2C2Data = SSP2BUF;
  2066  0004B8  CE92 F025          	movff	3730,_I2C2Data	;volatile
  2067                           
  2068                           ;SensorBoard_PCB.c: 370:             SSP2CON2bits.ACKDT = 0;
  2069  0004BC  9B97               	bcf	151,5,b	;volatile
  2070                           
  2071                           ;SensorBoard_PCB.c: 371:             SSP2CON2bits.ACKEN = 1;
  2072  0004BE  8997               	bsf	151,4,b	;volatile
  2073  0004C0                     l227:
  2074                           
  2075                           ; BSR set to: 14
  2076  0004C0  B997               	btfsc	151,4,b	;volatile
  2077  0004C2  EF65  F002         	goto	u851
  2078  0004C6  EF67  F002         	goto	u850
  2079  0004CA                     u851:
  2080  0004CA  EF60  F002         	goto	l227
  2081  0004CE                     u850:
  2082  0004CE                     l1702:
  2083                           
  2084                           ; BSR set to: 14
  2085                           ;SensorBoard_PCB.c: 374:             return 0xFF;
  2086  0004CE  0EFF               	movlw	255
  2087  0004D0  EFB7  F002         	goto	l223
  2088  0004D4                     l231:
  2089                           
  2090                           ;SensorBoard_PCB.c: 377:             SSP2CON2bits.RCEN = 1;
  2091  0004D4  010E               	movlb	14	; () banked
  2092  0004D6  8797               	bsf	151,3,b	;volatile
  2093  0004D8                     l232:
  2094                           
  2095                           ; BSR set to: 14
  2096  0004D8  B797               	btfsc	151,3,b	;volatile
  2097  0004DA  EF71  F002         	goto	u861
  2098  0004DE  EF73  F002         	goto	u860
  2099  0004E2                     u861:
  2100  0004E2  EF6C  F002         	goto	l232
  2101  0004E6                     u860:
  2102  0004E6                     
  2103                           ; BSR set to: 14
  2104                           ;SensorBoard_PCB.c: 380:             I2C2Data = SSP2BUF;
  2105  0004E6  CE92 F025          	movff	3730,_I2C2Data	;volatile
  2106                           
  2107                           ;SensorBoard_PCB.c: 381:             SSP2CON2bits.ACKDT = 0;
  2108  0004EA  9B97               	bcf	151,5,b	;volatile
  2109                           
  2110                           ;SensorBoard_PCB.c: 382:             SSP2CON2bits.ACKEN = 1;
  2111  0004EC  8997               	bsf	151,4,b	;volatile
  2112  0004EE                     l235:
  2113                           
  2114                           ; BSR set to: 14
  2115  0004EE  B997               	btfsc	151,4,b	;volatile
  2116  0004F0  EF7C  F002         	goto	u871
  2117  0004F4  EF7E  F002         	goto	u870
  2118  0004F8                     u871:
  2119  0004F8  EF77  F002         	goto	l235
  2120  0004FC                     u870:
  2121  0004FC  EF67  F002         	goto	l1702
  2122  000500                     l238:
  2123                           
  2124                           ;SensorBoard_PCB.c: 388:             SSP2CON2bits.RCEN = 1;
  2125  000500  010E               	movlb	14	; () banked
  2126  000502  8797               	bsf	151,3,b	;volatile
  2127  000504                     l239:
  2128                           
  2129                           ; BSR set to: 14
  2130  000504  B797               	btfsc	151,3,b	;volatile
  2131  000506  EF87  F002         	goto	u881
  2132  00050A  EF89  F002         	goto	u880
  2133  00050E                     u881:
  2134  00050E  EF82  F002         	goto	l239
  2135  000512                     u880:
  2136  000512                     
  2137                           ; BSR set to: 14
  2138                           ;SensorBoard_PCB.c: 391:             I2C2Data = SSP2BUF;
  2139  000512  CE92 F025          	movff	3730,_I2C2Data	;volatile
  2140                           
  2141                           ;SensorBoard_PCB.c: 392:             SSP2CON2bits.ACKDT = 1;
  2142  000516  8B97               	bsf	151,5,b	;volatile
  2143                           
  2144                           ;SensorBoard_PCB.c: 393:             SSP2CON2bits.ACKEN = 1;
  2145  000518  8997               	bsf	151,4,b	;volatile
  2146  00051A                     l242:
  2147                           
  2148                           ; BSR set to: 14
  2149  00051A  B997               	btfsc	151,4,b	;volatile
  2150  00051C  EF92  F002         	goto	u891
  2151  000520  EF94  F002         	goto	u890
  2152  000524                     u891:
  2153  000524  EF8D  F002         	goto	l242
  2154  000528                     u890:
  2155  000528                     
  2156                           ; BSR set to: 14
  2157                           ;SensorBoard_PCB.c: 395:             SSP2CON2bits.PEN = 1;
  2158  000528  8597               	bsf	151,2,b	;volatile
  2159  00052A                     l245:
  2160                           
  2161                           ; BSR set to: 14
  2162  00052A  B597               	btfsc	151,2,b	;volatile
  2163  00052C  EF9A  F002         	goto	u901
  2164  000530  EF9C  F002         	goto	u900
  2165  000534                     u901:
  2166  000534  EF95  F002         	goto	l245
  2167  000538                     u900:
  2168  000538  EF67  F002         	goto	l1702
  2169  00053C                     l1728:
  2170  00053C  5035               	movf	I2C2RequestData@function^0,w,c
  2171  00053E  6E33               	movwf	??_I2C2RequestData^0,c
  2172  000540  6A34               	clrf	(??_I2C2RequestData+1)^0,c
  2173                           
  2174                           ; Switch on 2 bytes has been partitioned into a top level switch of size 1, and 1 sub-sw
      +                          itches
  2175                           ; Switch size 1, requested type "simple"
  2176                           ; Number of cases is 1, Range of values is 0 to 0
  2177                           ; switch strategies available:
  2178                           ; Name         Instructions Cycles
  2179                           ; simple_byte            4     3 (average)
  2180                           ;	Chosen strategy is simple_byte
  2181  000542  5034               	movf	(??_I2C2RequestData+1)^0,w,c
  2182  000544  0A00               	xorlw	0	; case 0
  2183  000546  B4D8               	btfsc	status,2,c
  2184  000548  EFA8  F002         	goto	l2040
  2185  00054C  EF51  F002         	goto	l1698
  2186  000550                     l2040:
  2187                           
  2188                           ; Switch size 1, requested type "simple"
  2189                           ; Number of cases is 3, Range of values is 1 to 3
  2190                           ; switch strategies available:
  2191                           ; Name         Instructions Cycles
  2192                           ; simple_byte           10     6 (average)
  2193                           ;	Chosen strategy is simple_byte
  2194  000550  5033               	movf	??_I2C2RequestData^0,w,c
  2195  000552  0A01               	xorlw	1	; case 1
  2196  000554  B4D8               	btfsc	status,2,c
  2197  000556  EF30  F002         	goto	l212
  2198  00055A  0A03               	xorlw	3	; case 2
  2199  00055C  B4D8               	btfsc	status,2,c
  2200  00055E  EF6A  F002         	goto	l231
  2201  000562  0A01               	xorlw	1	; case 3
  2202  000564  B4D8               	btfsc	status,2,c
  2203  000566  EF80  F002         	goto	l238
  2204  00056A  EF51  F002         	goto	l1698
  2205  00056E                     l223:
  2206  00056E  0012               	return		;funcret
  2207  000570                     __end_of_I2C2RequestData:
  2208                           	callstack 0
  2209                           
  2210 ;; *************** function _PortsConfig *****************
  2211 ;; Defined at:
  2212 ;;		line 148 in file "SensorBoard_PCB.c"
  2213 ;; Parameters:    Size  Location     Type
  2214 ;;		None
  2215 ;; Auto vars:     Size  Location     Type
  2216 ;;		None
  2217 ;; Return value:  Size  Location     Type
  2218 ;;                  1    wreg      void 
  2219 ;; Registers used:
  2220 ;;		wreg, status,2
  2221 ;; Tracked objects:
  2222 ;;		On entry : 0/0
  2223 ;;		On exit  : 0/0
  2224 ;;		Unchanged: 0/0
  2225 ;; Data sizes:     COMRAM   BANK0   BANK1   BANK2   BANK3   BANK4   BANK5   BANK6   BANK7   BANK8   BANK9  BANK10  BANK1
      +1  BANK12  BANK13  BANK14
  2226 ;;      Params:         0       0       0       0       0       0       0       0       0       0       0       0       
      +0       0       0       0
  2227 ;;      Locals:         0       0       0       0       0       0       0       0       0       0       0       0       
      +0       0       0       0
  2228 ;;      Temps:          0       0       0       0       0       0       0       0       0       0       0       0       
      +0       0       0       0
  2229 ;;      Totals:         0       0       0       0       0       0       0       0       0       0       0       0       
      +0       0       0       0
  2230 ;;Total ram usage:        0 bytes
  2231 ;; Hardware stack levels used: 1
  2232 ;; Hardware stack levels required when called: 2
  2233 ;; This function calls:
  2234 ;;		Nothing
  2235 ;; This function is called by:
  2236 ;;		_main
  2237 ;; This function uses a non-reentrant model
  2238 ;;
  2239                           
  2240                           	psect	text15
  2241  00072C                     __ptext15:
  2242                           	callstack 0
  2243  00072C                     _PortsConfig:
  2244                           	callstack 28
  2245  00072C                     
  2246                           ;SensorBoard_PCB.c: 150:     PPSLOCK = 0x55;
  2247  00072C  0E55               	movlw	85
  2248  00072E  010E               	movlb	14	; () banked
  2249  000730  6FA0               	movwf	160,b	;volsfr
  2250                           
  2251                           ;SensorBoard_PCB.c: 151:     PPSLOCK = 0xAA;
  2252  000732  0EAA               	movlw	170
  2253  000734  6FA0               	movwf	160,b	;volsfr
  2254  000736                     
  2255                           ; BSR set to: 14
  2256                           ;SensorBoard_PCB.c: 152:     PPSLOCKbits.PPSLOCKED = 0;
  2257  000736  91A0               	bcf	160,0,b	;volsfr
  2258                           
  2259                           ;SensorBoard_PCB.c: 154:     RC0PPS = 0x10;
  2260  000738  0E10               	movlw	16
  2261  00073A  6FF7               	movwf	247,b	;volatile
  2262                           
  2263                           ;SensorBoard_PCB.c: 155:     RC1PPS = 0x0F;
  2264  00073C  0E0F               	movlw	15
  2265  00073E  6FF8               	movwf	248,b	;volatile
  2266                           
  2267                           ;SensorBoard_PCB.c: 156:     SSP1DATPPS = 0b00010000;
  2268  000740  0E10               	movlw	16
  2269  000742  6FB8               	movwf	184,b	;volatile
  2270                           
  2271                           ;SensorBoard_PCB.c: 157:     SSP1CLKPPS = 0b00010001;
  2272  000744  0E11               	movlw	17
  2273  000746  6FB7               	movwf	183,b	;volatile
  2274                           
  2275                           ;SensorBoard_PCB.c: 159:     RC2PPS = 0x12;
  2276  000748  0E12               	movlw	18
  2277  00074A  6FF9               	movwf	249,b	;volatile
  2278                           
  2279                           ;SensorBoard_PCB.c: 160:     RC3PPS = 0x11;
  2280  00074C  0E11               	movlw	17
  2281  00074E  6FFA               	movwf	250,b	;volatile
  2282                           
  2283                           ;SensorBoard_PCB.c: 161:     SSP2DATPPS = 0b00010010;
  2284  000750  0E12               	movlw	18
  2285  000752  6F90               	movwf	144,b	;volatile
  2286                           
  2287                           ;SensorBoard_PCB.c: 162:     SSP2CLKPPS = 0b00010011;
  2288  000754  0E13               	movlw	19
  2289  000756  6F8F               	movwf	143,b	;volatile
  2290                           
  2291                           ;SensorBoard_PCB.c: 164:     PPSLOCK = 0x55;
  2292  000758  0E55               	movlw	85
  2293  00075A  6FA0               	movwf	160,b	;volsfr
  2294                           
  2295                           ;SensorBoard_PCB.c: 165:     PPSLOCK = 0xAA;
  2296  00075C  0EAA               	movlw	170
  2297  00075E  6FA0               	movwf	160,b	;volsfr
  2298  000760                     
  2299                           ; BSR set to: 14
  2300                           ;SensorBoard_PCB.c: 166:     PPSLOCKbits.PPSLOCKED = 1;
  2301  000760  81A0               	bsf	160,0,b	;volsfr
  2302                           
  2303                           ;SensorBoard_PCB.c: 168:     LATA = 0x00;
  2304  000762  0E00               	movlw	0
  2305  000764  6E83               	movwf	131,c	;volatile
  2306                           
  2307                           ;SensorBoard_PCB.c: 169:     LATB = 0x00;
  2308  000766  0E00               	movlw	0
  2309  000768  6E84               	movwf	132,c	;volatile
  2310                           
  2311                           ;SensorBoard_PCB.c: 170:     LATC = 0x00;
  2312  00076A  0E00               	movlw	0
  2313  00076C  6E85               	movwf	133,c	;volatile
  2314                           
  2315                           ;SensorBoard_PCB.c: 172:     ANSELA = 0x00;
  2316  00076E  0E00               	movlw	0
  2317  000770  010F               	movlb	15	; () banked
  2318  000772  6F11               	movwf	17,b	;volatile
  2319                           
  2320                           ;SensorBoard_PCB.c: 173:     ANSELB = 0x00;
  2321  000774  0E00               	movlw	0
  2322  000776  6F19               	movwf	25,b	;volatile
  2323                           
  2324                           ;SensorBoard_PCB.c: 174:     ANSELC = 0x00;
  2325  000778  0E00               	movlw	0
  2326  00077A  6F21               	movwf	33,b	;volatile
  2327                           
  2328                           ;SensorBoard_PCB.c: 176:     TRISA = 0x00;
  2329  00077C  0E00               	movlw	0
  2330  00077E  6E88               	movwf	136,c	;volatile
  2331  000780                     
  2332                           ; BSR set to: 15
  2333                           ;SensorBoard_PCB.c: 177:     TRISB = 0xFF;
  2334  000780  6889               	setf	137,c	;volatile
  2335  000782                     
  2336                           ; BSR set to: 15
  2337                           ;SensorBoard_PCB.c: 178:     TRISC = 0xFF;
  2338  000782  688A               	setf	138,c	;volatile
  2339  000784                     
  2340                           ; BSR set to: 15
  2341  000784  0012               	return		;funcret
  2342  000786                     __end_of_PortsConfig:
  2343                           	callstack 0
  2344                           
  2345 ;; *************** function _NVMConfig *****************
  2346 ;; Defined at:
  2347 ;;		line 275 in file "SensorBoard_PCB.c"
  2348 ;; Parameters:    Size  Location     Type
  2349 ;;		None
  2350 ;; Auto vars:     Size  Location     Type
  2351 ;;		None
  2352 ;; Return value:  Size  Location     Type
  2353 ;;                  1    wreg      void 
  2354 ;; Registers used:
  2355 ;;		wreg, status,2
  2356 ;; Tracked objects:
  2357 ;;		On entry : 0/0
  2358 ;;		On exit  : 0/0
  2359 ;;		Unchanged: 0/0
  2360 ;; Data sizes:     COMRAM   BANK0   BANK1   BANK2   BANK3   BANK4   BANK5   BANK6   BANK7   BANK8   BANK9  BANK10  BANK1
      +1  BANK12  BANK13  BANK14
  2361 ;;      Params:         0       0       0       0       0       0       0       0       0       0       0       0       
      +0       0       0       0
  2362 ;;      Locals:         0       0       0       0       0       0       0       0       0       0       0       0       
      +0       0       0       0
  2363 ;;      Temps:          0       0       0       0       0       0       0       0       0       0       0       0       
      +0       0       0       0
  2364 ;;      Totals:         0       0       0       0       0       0       0       0       0       0       0       0       
      +0       0       0       0
  2365 ;;Total ram usage:        0 bytes
  2366 ;; Hardware stack levels used: 1
  2367 ;; Hardware stack levels required when called: 2
  2368 ;; This function calls:
  2369 ;;		Nothing
  2370 ;; This function is called by:
  2371 ;;		_main
  2372 ;; This function uses a non-reentrant model
  2373 ;;
  2374                           
  2375                           	psect	text16
  2376  000A64                     __ptext16:
  2377                           	callstack 0
  2378  000A64                     _NVMConfig:
  2379                           	callstack 28
  2380  000A64                     
  2381                           ;SensorBoard_PCB.c: 277:     NVMCON1bits.NVMREG = 0b00;
  2382  000A64  0E3F               	movlw	-193
  2383  000A66  1681               	andwf	129,f,c	;volsfr
  2384  000A68                     
  2385                           ;SensorBoard_PCB.c: 278:     NVMCON1bits.WREN = 0;
  2386  000A68  9481               	bcf	129,2,c	;volsfr
  2387  000A6A  0012               	return		;funcret
  2388  000A6C                     __end_of_NVMConfig:
  2389                           	callstack 0
  2390                           
  2391 ;; *************** function _IntConfig *****************
  2392 ;; Defined at:
  2393 ;;		line 223 in file "SensorBoard_PCB.c"
  2394 ;; Parameters:    Size  Location     Type
  2395 ;;		None
  2396 ;; Auto vars:     Size  Location     Type
  2397 ;;		None
  2398 ;; Return value:  Size  Location     Type
  2399 ;;                  1    wreg      void 
  2400 ;; Registers used:
  2401 ;;		wreg, status,2
  2402 ;; Tracked objects:
  2403 ;;		On entry : 0/0
  2404 ;;		On exit  : 0/0
  2405 ;;		Unchanged: 0/0
  2406 ;; Data sizes:     COMRAM   BANK0   BANK1   BANK2   BANK3   BANK4   BANK5   BANK6   BANK7   BANK8   BANK9  BANK10  BANK1
      +1  BANK12  BANK13  BANK14
  2407 ;;      Params:         0       0       0       0       0       0       0       0       0       0       0       0       
      +0       0       0       0
  2408 ;;      Locals:         0       0       0       0       0       0       0       0       0       0       0       0       
      +0       0       0       0
  2409 ;;      Temps:          0       0       0       0       0       0       0       0       0       0       0       0       
      +0       0       0       0
  2410 ;;      Totals:         0       0       0       0       0       0       0       0       0       0       0       0       
      +0       0       0       0
  2411 ;;Total ram usage:        0 bytes
  2412 ;; Hardware stack levels used: 1
  2413 ;; Hardware stack levels required when called: 2
  2414 ;; This function calls:
  2415 ;;		Nothing
  2416 ;; This function is called by:
  2417 ;;		_main
  2418 ;; This function uses a non-reentrant model
  2419 ;;
  2420                           
  2421                           	psect	text17
  2422  0009EE                     __ptext17:
  2423                           	callstack 0
  2424  0009EE                     _IntConfig:
  2425                           	callstack 28
  2426  0009EE                     
  2427                           ;SensorBoard_PCB.c: 225:     PIR1 = 0;
  2428  0009EE  0E00               	movlw	0
  2429  0009F0  010E               	movlb	14	; () banked
  2430  0009F2  6FCB               	movwf	203,b	;volatile
  2431                           
  2432                           ;SensorBoard_PCB.c: 226:     PIR2 = 0;
  2433  0009F4  0E00               	movlw	0
  2434  0009F6  6FCC               	movwf	204,b	;volatile
  2435                           
  2436                           ;SensorBoard_PCB.c: 227:     PIR3 = 0;
  2437  0009F8  0E00               	movlw	0
  2438  0009FA  6FCD               	movwf	205,b	;volatile
  2439                           
  2440                           ;SensorBoard_PCB.c: 228:     PIR4 = 0;
  2441  0009FC  0E00               	movlw	0
  2442  0009FE  6FCE               	movwf	206,b	;volatile
  2443                           
  2444                           ;SensorBoard_PCB.c: 229:     PIR5 = 0;
  2445  000A00  0E00               	movlw	0
  2446  000A02  6FCF               	movwf	207,b	;volatile
  2447  000A04                     
  2448                           ; BSR set to: 14
  2449                           ;SensorBoard_PCB.c: 231:     INTCONbits.IPEN = 0;
  2450  000A04  9AF2               	bcf	242,5,c	;volatile
  2451  000A06                     
  2452                           ; BSR set to: 14
  2453                           ;SensorBoard_PCB.c: 232:     INTCONbits.PEIE = 1;
  2454  000A06  8CF2               	bsf	242,6,c	;volatile
  2455  000A08                     
  2456                           ; BSR set to: 14
  2457                           ;SensorBoard_PCB.c: 233:     INTCONbits.GIE = 1;
  2458  000A08  8EF2               	bsf	242,7,c	;volatile
  2459  000A0A                     
  2460                           ; BSR set to: 14
  2461  000A0A  0012               	return		;funcret
  2462  000A0C                     __end_of_IntConfig:
  2463                           	callstack 0
  2464                           
  2465 ;; *************** function _HandleTMR4 *****************
  2466 ;; Defined at:
  2467 ;;		line 495 in file "SensorBoard_PCB.c"
  2468 ;; Parameters:    Size  Location     Type
  2469 ;;		None
  2470 ;; Auto vars:     Size  Location     Type
  2471 ;;		None
  2472 ;; Return value:  Size  Location     Type
  2473 ;;                  1    wreg      void 
  2474 ;; Registers used:
  2475 ;;		status,2, status,0
  2476 ;; Tracked objects:
  2477 ;;		On entry : 0/0
  2478 ;;		On exit  : 0/0
  2479 ;;		Unchanged: 0/0
  2480 ;; Data sizes:     COMRAM   BANK0   BANK1   BANK2   BANK3   BANK4   BANK5   BANK6   BANK7   BANK8   BANK9  BANK10  BANK1
      +1  BANK12  BANK13  BANK14
  2481 ;;      Params:         0       0       0       0       0       0       0       0       0       0       0       0       
      +0       0       0       0
  2482 ;;      Locals:         0       0       0       0       0       0       0       0       0       0       0       0       
      +0       0       0       0
  2483 ;;      Temps:          0       0       0       0       0       0       0       0       0       0       0       0       
      +0       0       0       0
  2484 ;;      Totals:         0       0       0       0       0       0       0       0       0       0       0       0       
      +0       0       0       0
  2485 ;;Total ram usage:        0 bytes
  2486 ;; Hardware stack levels used: 1
  2487 ;; Hardware stack levels required when called: 2
  2488 ;; This function calls:
  2489 ;;		Nothing
  2490 ;; This function is called by:
  2491 ;;		_main
  2492 ;; This function uses a non-reentrant model
  2493 ;;
  2494                           
  2495                           	psect	text18
  2496  000A7C                     __ptext18:
  2497                           	callstack 0
  2498  000A7C                     _HandleTMR4:
  2499                           	callstack 28
  2500  000A7C                     
  2501                           ;SensorBoard_PCB.c: 497:     pFlag &= 0b01111111;
  2502  000A7C  9E2D               	bcf	_pFlag^0,7,c
  2503  000A7E  0012               	return		;funcret
  2504  000A80                     __end_of_HandleTMR4:
  2505                           	callstack 0
  2506                           
  2507 ;; *************** function _HandleTMR2 *****************
  2508 ;; Defined at:
  2509 ;;		line 480 in file "SensorBoard_PCB.c"
  2510 ;; Parameters:    Size  Location     Type
  2511 ;;		None
  2512 ;; Auto vars:     Size  Location     Type
  2513 ;;		None
  2514 ;; Return value:  Size  Location     Type
  2515 ;;                  1    wreg      void 
  2516 ;; Registers used:
  2517 ;;		wreg, status,2, status,0
  2518 ;; Tracked objects:
  2519 ;;		On entry : 0/0
  2520 ;;		On exit  : 0/0
  2521 ;;		Unchanged: 0/0
  2522 ;; Data sizes:     COMRAM   BANK0   BANK1   BANK2   BANK3   BANK4   BANK5   BANK6   BANK7   BANK8   BANK9  BANK10  BANK1
      +1  BANK12  BANK13  BANK14
  2523 ;;      Params:         0       0       0       0       0       0       0       0       0       0       0       0       
      +0       0       0       0
  2524 ;;      Locals:         0       0       0       0       0       0       0       0       0       0       0       0       
      +0       0       0       0
  2525 ;;      Temps:          0       0       0       0       0       0       0       0       0       0       0       0       
      +0       0       0       0
  2526 ;;      Totals:         0       0       0       0       0       0       0       0       0       0       0       0       
      +0       0       0       0
  2527 ;;Total ram usage:        0 bytes
  2528 ;; Hardware stack levels used: 1
  2529 ;; Hardware stack levels required when called: 2
  2530 ;; This function calls:
  2531 ;;		Nothing
  2532 ;; This function is called by:
  2533 ;;		_main
  2534 ;; This function uses a non-reentrant model
  2535 ;;
  2536                           
  2537                           	psect	text19
  2538  0007D4                     __ptext19:
  2539                           	callstack 0
  2540  0007D4                     _HandleTMR2:
  2541                           	callstack 28
  2542  0007D4                     
  2543                           ;SensorBoard_PCB.c: 483:     if(T2Delay != 150) {T2Delay++;} else
  2544  0007D4  0E96               	movlw	150
  2545  0007D6  1843               	xorwf	_T2Delay^0,w,c
  2546  0007D8  B4D8               	btfsc	status,2,c
  2547  0007DA  EFF1  F003         	goto	u451
  2548  0007DE  EFF3  F003         	goto	u450
  2549  0007E2                     u451:
  2550  0007E2  EFF6  F003         	goto	l1368
  2551  0007E6                     u450:
  2552  0007E6  2A43               	incf	_T2Delay^0,f,c
  2553  0007E8  EF0F  F004         	goto	l293
  2554  0007EC                     l1368:
  2555                           
  2556                           ;SensorBoard_PCB.c: 484:     {;SensorBoard_PCB.c: 485:         T2Count++;
  2557  0007EC  2A2A               	incf	_T2Count^0,f,c
  2558  0007EE                     
  2559                           ;SensorBoard_PCB.c: 486:         if(T2Count == 6)
  2560  0007EE  0E06               	movlw	6
  2561  0007F0  182A               	xorwf	_T2Count^0,w,c
  2562  0007F2  A4D8               	btfss	status,2,c
  2563  0007F4  EFFE  F003         	goto	u461
  2564  0007F8  EF00  F004         	goto	u460
  2565  0007FC                     u461:
  2566  0007FC  EF0F  F004         	goto	l293
  2567  000800                     u460:
  2568  000800                     
  2569                           ;SensorBoard_PCB.c: 487:         {;SensorBoard_PCB.c: 488:             T2Count = 0;
  2570  000800  0E00               	movlw	0
  2571  000802  6E2A               	movwf	_T2Count^0,c
  2572  000804                     
  2573                           ;SensorBoard_PCB.c: 489:             LATA = LATA << 1;
  2574  000804  5083               	movf	131,w,c	;volatile
  2575  000806  2483               	addwf	131,w,c	;volatile
  2576  000808  6E83               	movwf	131,c	;volatile
  2577  00080A                     
  2578                           ;SensorBoard_PCB.c: 490:             if(LATA == 0) {LATA = 1;}
  2579  00080A  5083               	movf	131,w,c	;volatile
  2580  00080C  A4D8               	btfss	status,2,c
  2581  00080E  EF0B  F004         	goto	u471
  2582  000812  EF0D  F004         	goto	u470
  2583  000816                     u471:
  2584  000816  EF0F  F004         	goto	l293
  2585  00081A                     u470:
  2586  00081A  0E01               	movlw	1
  2587  00081C  6E83               	movwf	131,c	;volatile
  2588  00081E                     l293:
  2589  00081E  0012               	return		;funcret
  2590  000820                     __end_of_HandleTMR2:
  2591                           	callstack 0
  2592                           
  2593 ;; *************** function _HandleIOC *****************
  2594 ;; Defined at:
  2595 ;;		line 500 in file "SensorBoard_PCB.c"
  2596 ;; Parameters:    Size  Location     Type
  2597 ;;		None
  2598 ;; Auto vars:     Size  Location     Type
  2599 ;;		None
  2600 ;; Return value:  Size  Location     Type
  2601 ;;                  1    wreg      void 
  2602 ;; Registers used:
  2603 ;;		wreg, status,2, status,0
  2604 ;; Tracked objects:
  2605 ;;		On entry : 0/0
  2606 ;;		On exit  : 0/0
  2607 ;;		Unchanged: 0/0
  2608 ;; Data sizes:     COMRAM   BANK0   BANK1   BANK2   BANK3   BANK4   BANK5   BANK6   BANK7   BANK8   BANK9  BANK10  BANK1
      +1  BANK12  BANK13  BANK14
  2609 ;;      Params:         0       0       0       0       0       0       0       0       0       0       0       0       
      +0       0       0       0
  2610 ;;      Locals:         0       0       0       0       0       0       0       0       0       0       0       0       
      +0       0       0       0
  2611 ;;      Temps:          0       0       0       0       0       0       0       0       0       0       0       0       
      +0       0       0       0
  2612 ;;      Totals:         0       0       0       0       0       0       0       0       0       0       0       0       
      +0       0       0       0
  2613 ;;Total ram usage:        0 bytes
  2614 ;; Hardware stack levels used: 1
  2615 ;; Hardware stack levels required when called: 2
  2616 ;; This function calls:
  2617 ;;		Nothing
  2618 ;; This function is called by:
  2619 ;;		_main
  2620 ;; This function uses a non-reentrant model
  2621 ;;
  2622                           
  2623                           	psect	text20
  2624  000978                     __ptext20:
  2625                           	callstack 0
  2626  000978                     _HandleIOC:
  2627                           	callstack 28
  2628  000978                     
  2629                           ;SensorBoard_PCB.c: 502:     if(PORTC & 0b00100000) {pFlag |= 0b00010000; T2Delay = 0;}
  2630  000978  AA8F               	btfss	143,5,c	;volatile
  2631  00097A  EFC1  F004         	goto	u481
  2632  00097E  EFC3  F004         	goto	u480
  2633  000982                     u481:
  2634  000982  EFC6  F004         	goto	l1388
  2635  000986                     u480:
  2636  000986  882D               	bsf	_pFlag^0,4,c
  2637  000988  0E00               	movlw	0
  2638  00098A  6E43               	movwf	_T2Delay^0,c
  2639  00098C                     l1388:
  2640                           
  2641                           ;SensorBoard_PCB.c: 503:     if(PORTC & 0b00010000) {pFlag |= 0b00001000; T2Delay = 0;}
  2642  00098C  A88F               	btfss	143,4,c	;volatile
  2643  00098E  EFCB  F004         	goto	u491
  2644  000992  EFCD  F004         	goto	u490
  2645  000996                     u491:
  2646  000996  EFD0  F004         	goto	l301
  2647  00099A                     u490:
  2648  00099A  862D               	bsf	_pFlag^0,3,c
  2649  00099C  0E00               	movlw	0
  2650  00099E  6E43               	movwf	_T2Delay^0,c
  2651  0009A0                     l301:
  2652  0009A0  0012               	return		;funcret
  2653  0009A2                     __end_of_HandleIOC:
  2654                           	callstack 0
  2655                           
  2656 ;; *************** function _EraseSensors *****************
  2657 ;; Defined at:
  2658 ;;		line 516 in file "SensorBoard_PCB.c"
  2659 ;; Parameters:    Size  Location     Type
  2660 ;;		None
  2661 ;; Auto vars:     Size  Location     Type
  2662 ;;  i               1    6[COMRAM] unsigned char 
  2663 ;; Return value:  Size  Location     Type
  2664 ;;                  1    wreg      void 
  2665 ;; Registers used:
  2666 ;;		wreg, status,2, status,0, cstack
  2667 ;; Tracked objects:
  2668 ;;		On entry : 0/0
  2669 ;;		On exit  : 0/0
  2670 ;;		Unchanged: 0/0
  2671 ;; Data sizes:     COMRAM   BANK0   BANK1   BANK2   BANK3   BANK4   BANK5   BANK6   BANK7   BANK8   BANK9  BANK10  BANK1
      +1  BANK12  BANK13  BANK14
  2672 ;;      Params:         0       0       0       0       0       0       0       0       0       0       0       0       
      +0       0       0       0
  2673 ;;      Locals:         1       0       0       0       0       0       0       0       0       0       0       0       
      +0       0       0       0
  2674 ;;      Temps:          0       0       0       0       0       0       0       0       0       0       0       0       
      +0       0       0       0
  2675 ;;      Totals:         1       0       0       0       0       0       0       0       0       0       0       0       
      +0       0       0       0
  2676 ;;Total ram usage:        1 bytes
  2677 ;; Hardware stack levels used: 1
  2678 ;; Hardware stack levels required when called: 3
  2679 ;; This function calls:
  2680 ;;		_WriteToEEPROM
  2681 ;; This function is called by:
  2682 ;;		_main
  2683 ;; This function uses a non-reentrant model
  2684 ;;
  2685                           
  2686                           	psect	text21
  2687  0009A2                     __ptext21:
  2688                           	callstack 0
  2689  0009A2                     _EraseSensors:
  2690                           	callstack 27
  2691  0009A2                     
  2692                           ;SensorBoard_PCB.c: 518:     char i;;SensorBoard_PCB.c: 519:     LATA = 0x0F;
  2693  0009A2  0E0F               	movlw	15
  2694  0009A4  6E83               	movwf	131,c	;volatile
  2695                           
  2696                           ;SensorBoard_PCB.c: 520:     for (i = 0x10; i != 0x22 ; i++)
  2697  0009A6  0E10               	movlw	16
  2698  0009A8  6E34               	movwf	EraseSensors@i^0,c
  2699  0009AA                     l1872:
  2700                           
  2701                           ;SensorBoard_PCB.c: 521:     {;SensorBoard_PCB.c: 522:         WriteToEEPROM(i, 0x00);
  2702  0009AA  0E00               	movlw	0
  2703  0009AC  6E32               	movwf	WriteToEEPROM@val^0,c
  2704  0009AE  5034               	movf	EraseSensors@i^0,w,c
  2705  0009B0  EC8F  F004         	call	_WriteToEEPROM
  2706  0009B4                     
  2707                           ;SensorBoard_PCB.c: 523:     }
  2708  0009B4  2A34               	incf	EraseSensors@i^0,f,c
  2709  0009B6  0E22               	movlw	34
  2710  0009B8  1834               	xorwf	EraseSensors@i^0,w,c
  2711  0009BA  A4D8               	btfss	status,2,c
  2712  0009BC  EFE2  F004         	goto	u1141
  2713  0009C0  EFE4  F004         	goto	u1140
  2714  0009C4                     u1141:
  2715  0009C4  EFD5  F004         	goto	l1872
  2716  0009C8                     u1140:
  2717  0009C8  0012               	return		;funcret
  2718  0009CA                     __end_of_EraseSensors:
  2719                           	callstack 0
  2720                           
  2721 ;; *************** function _WriteToEEPROM *****************
  2722 ;; Defined at:
  2723 ;;		line 285 in file "SensorBoard_PCB.c"
  2724 ;; Parameters:    Size  Location     Type
  2725 ;;  address         1    wreg     unsigned char 
  2726 ;;  val             1    4[COMRAM] unsigned char 
  2727 ;; Auto vars:     Size  Location     Type
  2728 ;;  address         1    5[COMRAM] unsigned char 
  2729 ;; Return value:  Size  Location     Type
  2730 ;;                  1    wreg      void 
  2731 ;; Registers used:
  2732 ;;		wreg, status,2
  2733 ;; Tracked objects:
  2734 ;;		On entry : 0/0
  2735 ;;		On exit  : 0/0
  2736 ;;		Unchanged: 0/0
  2737 ;; Data sizes:     COMRAM   BANK0   BANK1   BANK2   BANK3   BANK4   BANK5   BANK6   BANK7   BANK8   BANK9  BANK10  BANK1
      +1  BANK12  BANK13  BANK14
  2738 ;;      Params:         1       0       0       0       0       0       0       0       0       0       0       0       
      +0       0       0       0
  2739 ;;      Locals:         1       0       0       0       0       0       0       0       0       0       0       0       
      +0       0       0       0
  2740 ;;      Temps:          0       0       0       0       0       0       0       0       0       0       0       0       
      +0       0       0       0
  2741 ;;      Totals:         2       0       0       0       0       0       0       0       0       0       0       0       
      +0       0       0       0
  2742 ;;Total ram usage:        2 bytes
  2743 ;; Hardware stack levels used: 1
  2744 ;; Hardware stack levels required when called: 2
  2745 ;; This function calls:
  2746 ;;		Nothing
  2747 ;; This function is called by:
  2748 ;;		_SaveSensor
  2749 ;;		_EraseSensors
  2750 ;; This function uses a non-reentrant model
  2751 ;;
  2752                           
  2753                           	psect	text22
  2754  00091E                     __ptext22:
  2755                           	callstack 0
  2756  00091E                     _WriteToEEPROM:
  2757                           	callstack 26
  2758                           
  2759                           ;incstack = 0
  2760                           ;WriteToEEPROM@address stored from wreg
  2761  00091E  6E33               	movwf	WriteToEEPROM@address^0,c
  2762  000920                     
  2763                           ;SensorBoard_PCB.c: 285: void WriteToEEPROM(char address, char val);SensorBoard_PCB.c: 2
      +                          86: {;SensorBoard_PCB.c: 287:     INTCONbits.GIE = 0;
  2764  000920  9EF2               	bcf	242,7,c	;volatile
  2765  000922                     
  2766                           ;SensorBoard_PCB.c: 289:     NVMADR = address;
  2767  000922  C033  FF7E         	movff	WriteToEEPROM@address,3966	;volatile
  2768  000926  6A7F               	clrf	127,c	;volatile
  2769  000928                     
  2770                           ;SensorBoard_PCB.c: 290:     NVMDAT = val;
  2771  000928  C032  FF80         	movff	WriteToEEPROM@val,3968	;volatile
  2772  00092C                     
  2773                           ;SensorBoard_PCB.c: 292:     NVMCON1bits.WREN = 1;
  2774  00092C  8481               	bsf	129,2,c	;volsfr
  2775  00092E                     
  2776                           ;SensorBoard_PCB.c: 294:     NVMCON2 = 0x55;
  2777  00092E  0E55               	movlw	85
  2778  000930  6E82               	movwf	130,c	;volsfr
  2779  000932                     
  2780                           ;SensorBoard_PCB.c: 295:     NVMCON2 = 0xAA;
  2781  000932  0EAA               	movlw	170
  2782  000934  6E82               	movwf	130,c	;volsfr
  2783  000936                     
  2784                           ;SensorBoard_PCB.c: 296:     NVMCON1bits.WR = 1;
  2785  000936  8281               	bsf	129,1,c	;volsfr
  2786  000938                     l179:
  2787  000938  B281               	btfsc	129,1,c	;volsfr
  2788  00093A  EFA1  F004         	goto	u791
  2789  00093E  EFA3  F004         	goto	u790
  2790  000942                     u791:
  2791  000942  EF9C  F004         	goto	l179
  2792  000946                     u790:
  2793  000946                     
  2794                           ;SensorBoard_PCB.c: 300:     NVMCON1bits.WREN = 0;
  2795  000946  9481               	bcf	129,2,c	;volsfr
  2796                           
  2797                           ;SensorBoard_PCB.c: 301:     INTCONbits.GIE = 1;
  2798  000948  8EF2               	bsf	242,7,c	;volatile
  2799  00094A  0012               	return		;funcret
  2800  00094C                     __end_of_WriteToEEPROM:
  2801                           	callstack 0
  2802                           
  2803 ;; *************** function _ISR *****************
  2804 ;; Defined at:
  2805 ;;		line 690 in file "SensorBoard_PCB.c"
  2806 ;; Parameters:    Size  Location     Type
  2807 ;;		None
  2808 ;; Auto vars:     Size  Location     Type
  2809 ;;		None
  2810 ;; Return value:  Size  Location     Type
  2811 ;;                  1    wreg      void 
  2812 ;; Registers used:
  2813 ;;		wreg, fsr2l, fsr2h, status,2, status,0, cstack
  2814 ;; Tracked objects:
  2815 ;;		On entry : 0/0
  2816 ;;		On exit  : 0/0
  2817 ;;		Unchanged: 0/0
  2818 ;; Data sizes:     COMRAM   BANK0   BANK1   BANK2   BANK3   BANK4   BANK5   BANK6   BANK7   BANK8   BANK9  BANK10  BANK1
      +1  BANK12  BANK13  BANK14
  2819 ;;      Params:         0       0       0       0       0       0       0       0       0       0       0       0       
      +0       0       0       0
  2820 ;;      Locals:         0       0       0       0       0       0       0       0       0       0       0       0       
      +0       0       0       0
  2821 ;;      Temps:          2       0       0       0       0       0       0       0       0       0       0       0       
      +0       0       0       0
  2822 ;;      Totals:         2       0       0       0       0       0       0       0       0       0       0       0       
      +0       0       0       0
  2823 ;;Total ram usage:        2 bytes
  2824 ;; Hardware stack levels used: 1
  2825 ;; Hardware stack levels required when called: 1
  2826 ;; This function calls:
  2827 ;;		_I2C1_ISR
  2828 ;;		_IOC_ISR
  2829 ;;		_TMR2_ISR
  2830 ;;		_TMR4_ISR
  2831 ;; This function is called by:
  2832 ;;		Interrupt level 2
  2833 ;; This function uses a non-reentrant model
  2834 ;;
  2835                           
  2836                           	psect	intcode
  2837  000008                     __pintcode:
  2838                           	callstack 0
  2839  000008                     _ISR:
  2840                           	callstack 26
  2841                           
  2842                           ;incstack = 0
  2843  000008  8244               	bsf	int$flags,1,c	;set compiler interrupt flag (level 2)
  2844  00000A  CFD9 F030          	movff	fsr2l,??_ISR
  2845  00000E  CFDA F031          	movff	fsr2h,??_ISR+1
  2846  000012                     
  2847                           ;SensorBoard_PCB.c: 692:     if (PIR4bits.TMR4IF == 1) {TMR4_ISR();}
  2848  000012  010E               	movlb	14	; () banked
  2849  000014  A7CE               	btfss	206,3,b	;volatile
  2850  000016  EF0F  F000         	goto	i2u69_41
  2851  00001A  EF11  F000         	goto	i2u69_40
  2852  00001E                     i2u69_41:
  2853  00001E  EF13  F000         	goto	i2l1564
  2854  000022                     i2u69_40:
  2855  000022                     
  2856                           ; BSR set to: 14
  2857  000022  EC36  F005         	call	_TMR4_ISR	;wreg free
  2858  000026                     i2l1564:
  2859                           
  2860                           ;SensorBoard_PCB.c: 693:     if (PIR4bits.TMR2IF == 1) {TMR2_ISR();}
  2861  000026  010E               	movlb	14	; () banked
  2862  000028  A3CE               	btfss	206,1,b	;volatile
  2863  00002A  EF19  F000         	goto	i2u70_41
  2864  00002E  EF1B  F000         	goto	i2u70_40
  2865  000032                     i2u70_41:
  2866  000032  EF1D  F000         	goto	i2l1568
  2867  000036                     i2u70_40:
  2868  000036                     
  2869                           ; BSR set to: 14
  2870  000036  EC3A  F005         	call	_TMR2_ISR	;wreg free
  2871  00003A                     i2l1568:
  2872                           
  2873                           ;SensorBoard_PCB.c: 695:     if (PIR0bits.IOCIF == 1) {IOC_ISR();}
  2874  00003A  010E               	movlb	14	; () banked
  2875  00003C  A9CA               	btfss	202,4,b	;volatile
  2876  00003E  EF23  F000         	goto	i2u71_41
  2877  000042  EF25  F000         	goto	i2u71_40
  2878  000046                     i2u71_41:
  2879  000046  EF27  F000         	goto	i2l1572
  2880  00004A                     i2u71_40:
  2881  00004A                     
  2882                           ; BSR set to: 14
  2883  00004A  EC2B  F005         	call	_IOC_ISR	;wreg free
  2884  00004E                     i2l1572:
  2885                           
  2886                           ;SensorBoard_PCB.c: 696:     if (PIR3bits.SSP1IF == 1) {I2C1_ISR();}
  2887  00004E  010E               	movlb	14	; () banked
  2888  000050  A1CD               	btfss	205,0,b	;volatile
  2889  000052  EF2D  F000         	goto	i2u72_41
  2890  000056  EF2F  F000         	goto	i2u72_40
  2891  00005A                     i2u72_41:
  2892  00005A  EF31  F000         	goto	i2l372
  2893  00005E                     i2u72_40:
  2894  00005E                     
  2895                           ; BSR set to: 14
  2896  00005E  ECB8  F002         	call	_I2C1_ISR	;wreg free
  2897  000062                     i2l372:
  2898  000062  C031  FFDA         	movff	??_ISR+1,fsr2h
  2899  000066  C030  FFD9         	movff	??_ISR,fsr2l
  2900  00006A  9244               	bcf	int$flags,1,c	;clear compiler interrupt flag (level 2)
  2901  00006C  0011               	retfie		f
  2902  00006E                     __end_of_ISR:
  2903                           	callstack 0
  2904                           
  2905 ;; *************** function _TMR4_ISR *****************
  2906 ;; Defined at:
  2907 ;;		line 607 in file "SensorBoard_PCB.c"
  2908 ;; Parameters:    Size  Location     Type
  2909 ;;		None
  2910 ;; Auto vars:     Size  Location     Type
  2911 ;;		None
  2912 ;; Return value:  Size  Location     Type
  2913 ;;                  1    wreg      void 
  2914 ;; Registers used:
  2915 ;;		status,2, status,0
  2916 ;; Tracked objects:
  2917 ;;		On entry : 0/0
  2918 ;;		On exit  : 0/0
  2919 ;;		Unchanged: 0/0
  2920 ;; Data sizes:     COMRAM   BANK0   BANK1   BANK2   BANK3   BANK4   BANK5   BANK6   BANK7   BANK8   BANK9  BANK10  BANK1
      +1  BANK12  BANK13  BANK14
  2921 ;;      Params:         0       0       0       0       0       0       0       0       0       0       0       0       
      +0       0       0       0
  2922 ;;      Locals:         0       0       0       0       0       0       0       0       0       0       0       0       
      +0       0       0       0
  2923 ;;      Temps:          0       0       0       0       0       0       0       0       0       0       0       0       
      +0       0       0       0
  2924 ;;      Totals:         0       0       0       0       0       0       0       0       0       0       0       0       
      +0       0       0       0
  2925 ;;Total ram usage:        0 bytes
  2926 ;; Hardware stack levels used: 1
  2927 ;; This function calls:
  2928 ;;		Nothing
  2929 ;; This function is called by:
  2930 ;;		_ISR
  2931 ;; This function uses a non-reentrant model
  2932 ;;
  2933                           
  2934                           	psect	text24
  2935  000A6C                     __ptext24:
  2936                           	callstack 0
  2937  000A6C                     _TMR4_ISR:
  2938                           	callstack 26
  2939  000A6C                     
  2940                           ;SensorBoard_PCB.c: 609:     pFlag |= 0b10000000;
  2941  000A6C  8E2D               	bsf	_pFlag^0,7,c
  2942  000A6E                     
  2943                           ;SensorBoard_PCB.c: 610:     PIR4bits.TMR4IF = 0;
  2944  000A6E  010E               	movlb	14	; () banked
  2945  000A70  97CE               	bcf	206,3,b	;volatile
  2946  000A72                     
  2947                           ; BSR set to: 14
  2948  000A72  0012               	return		;funcret
  2949  000A74                     __end_of_TMR4_ISR:
  2950                           	callstack 0
  2951                           
  2952 ;; *************** function _TMR2_ISR *****************
  2953 ;; Defined at:
  2954 ;;		line 601 in file "SensorBoard_PCB.c"
  2955 ;; Parameters:    Size  Location     Type
  2956 ;;		None
  2957 ;; Auto vars:     Size  Location     Type
  2958 ;;		None
  2959 ;; Return value:  Size  Location     Type
  2960 ;;                  1    wreg      void 
  2961 ;; Registers used:
  2962 ;;		status,2, status,0
  2963 ;; Tracked objects:
  2964 ;;		On entry : 0/0
  2965 ;;		On exit  : 0/0
  2966 ;;		Unchanged: 0/0
  2967 ;; Data sizes:     COMRAM   BANK0   BANK1   BANK2   BANK3   BANK4   BANK5   BANK6   BANK7   BANK8   BANK9  BANK10  BANK1
      +1  BANK12  BANK13  BANK14
  2968 ;;      Params:         0       0       0       0       0       0       0       0       0       0       0       0       
      +0       0       0       0
  2969 ;;      Locals:         0       0       0       0       0       0       0       0       0       0       0       0       
      +0       0       0       0
  2970 ;;      Temps:          0       0       0       0       0       0       0       0       0       0       0       0       
      +0       0       0       0
  2971 ;;      Totals:         0       0       0       0       0       0       0       0       0       0       0       0       
      +0       0       0       0
  2972 ;;Total ram usage:        0 bytes
  2973 ;; Hardware stack levels used: 1
  2974 ;; This function calls:
  2975 ;;		Nothing
  2976 ;; This function is called by:
  2977 ;;		_ISR
  2978 ;; This function uses a non-reentrant model
  2979 ;;
  2980                           
  2981                           	psect	text25
  2982  000A74                     __ptext25:
  2983                           	callstack 0
  2984  000A74                     _TMR2_ISR:
  2985                           	callstack 26
  2986  000A74                     
  2987                           ;SensorBoard_PCB.c: 603:     pFlag |= 0b01000000;
  2988  000A74  8C2D               	bsf	_pFlag^0,6,c
  2989  000A76                     
  2990                           ;SensorBoard_PCB.c: 604:     PIR4bits.TMR2IF = 0;
  2991  000A76  010E               	movlb	14	; () banked
  2992  000A78  93CE               	bcf	206,1,b	;volatile
  2993  000A7A                     
  2994                           ; BSR set to: 14
  2995  000A7A  0012               	return		;funcret
  2996  000A7C                     __end_of_TMR2_ISR:
  2997                           	callstack 0
  2998                           
  2999 ;; *************** function _IOC_ISR *****************
  3000 ;; Defined at:
  3001 ;;		line 613 in file "SensorBoard_PCB.c"
  3002 ;; Parameters:    Size  Location     Type
  3003 ;;		None
  3004 ;; Auto vars:     Size  Location     Type
  3005 ;;		None
  3006 ;; Return value:  Size  Location     Type
  3007 ;;                  1    wreg      void 
  3008 ;; Registers used:
  3009 ;;		wreg, status,2, status,0
  3010 ;; Tracked objects:
  3011 ;;		On entry : 0/0
  3012 ;;		On exit  : 0/0
  3013 ;;		Unchanged: 0/0
  3014 ;; Data sizes:     COMRAM   BANK0   BANK1   BANK2   BANK3   BANK4   BANK5   BANK6   BANK7   BANK8   BANK9  BANK10  BANK1
      +1  BANK12  BANK13  BANK14
  3015 ;;      Params:         0       0       0       0       0       0       0       0       0       0       0       0       
      +0       0       0       0
  3016 ;;      Locals:         0       0       0       0       0       0       0       0       0       0       0       0       
      +0       0       0       0
  3017 ;;      Temps:          0       0       0       0       0       0       0       0       0       0       0       0       
      +0       0       0       0
  3018 ;;      Totals:         0       0       0       0       0       0       0       0       0       0       0       0       
      +0       0       0       0
  3019 ;;Total ram usage:        0 bytes
  3020 ;; Hardware stack levels used: 1
  3021 ;; This function calls:
  3022 ;;		Nothing
  3023 ;; This function is called by:
  3024 ;;		_ISR
  3025 ;; This function uses a non-reentrant model
  3026 ;;
  3027                           
  3028                           	psect	text26
  3029  000A56                     __ptext26:
  3030                           	callstack 0
  3031  000A56                     _IOC_ISR:
  3032                           	callstack 26
  3033  000A56                     
  3034                           ;SensorBoard_PCB.c: 615:     pFlag |= 0b00100000;
  3035  000A56  8A2D               	bsf	_pFlag^0,5,c
  3036  000A58                     
  3037                           ;SensorBoard_PCB.c: 616:     IOCCF &= 0x00;
  3038  000A58  0E00               	movlw	0
  3039  000A5A  010F               	movlb	15	; () banked
  3040  000A5C  6F1A               	movwf	26,b	;volatile
  3041  000A5E                     
  3042                           ; BSR set to: 15
  3043                           ;SensorBoard_PCB.c: 617:     PIR0bits.IOCIF = 0;
  3044  000A5E  010E               	movlb	14	; () banked
  3045  000A60  99CA               	bcf	202,4,b	;volatile
  3046  000A62                     
  3047                           ; BSR set to: 14
  3048  000A62  0012               	return		;funcret
  3049  000A64                     __end_of_IOC_ISR:
  3050                           	callstack 0
  3051                           
  3052 ;; *************** function _I2C1_ISR *****************
  3053 ;; Defined at:
  3054 ;;		line 620 in file "SensorBoard_PCB.c"
  3055 ;; Parameters:    Size  Location     Type
  3056 ;;		None
  3057 ;; Auto vars:     Size  Location     Type
  3058 ;;		None
  3059 ;; Return value:  Size  Location     Type
  3060 ;;                  1    wreg      void 
  3061 ;; Registers used:
  3062 ;;		wreg, fsr2l, fsr2h, status,2, status,0
  3063 ;; Tracked objects:
  3064 ;;		On entry : 0/0
  3065 ;;		On exit  : 0/0
  3066 ;;		Unchanged: 0/0
  3067 ;; Data sizes:     COMRAM   BANK0   BANK1   BANK2   BANK3   BANK4   BANK5   BANK6   BANK7   BANK8   BANK9  BANK10  BANK1
      +1  BANK12  BANK13  BANK14
  3068 ;;      Params:         0       0       0       0       0       0       0       0       0       0       0       0       
      +0       0       0       0
  3069 ;;      Locals:         0       0       0       0       0       0       0       0       0       0       0       0       
      +0       0       0       0
  3070 ;;      Temps:          2       0       0       0       0       0       0       0       0       0       0       0       
      +0       0       0       0
  3071 ;;      Totals:         2       0       0       0       0       0       0       0       0       0       0       0       
      +0       0       0       0
  3072 ;;Total ram usage:        2 bytes
  3073 ;; Hardware stack levels used: 1
  3074 ;; This function calls:
  3075 ;;		Nothing
  3076 ;; This function is called by:
  3077 ;;		_ISR
  3078 ;; This function uses a non-reentrant model
  3079 ;;
  3080                           
  3081                           	psect	text27
  3082  000570                     __ptext27:
  3083                           	callstack 0
  3084  000570                     _I2C1_ISR:
  3085                           	callstack 26
  3086  000570                     
  3087                           ;SensorBoard_PCB.c: 643:     PIR3bits.SSP1IF = 0;
  3088  000570  010E               	movlb	14	; () banked
  3089  000572  91CD               	bcf	205,0,b	;volatile
  3090                           
  3091                           ;SensorBoard_PCB.c: 644:     SSP1CON1bits.SSPOV = 0;
  3092  000574  9C96               	bcf	150,6,c	;volatile
  3093                           
  3094                           ;SensorBoard_PCB.c: 647:     switch (I2C1Status)
  3095  000576  EF02  F003         	goto	i2l1542
  3096  00057A                     i2l353:
  3097                           
  3098                           ; BSR set to: 14
  3099                           ;SensorBoard_PCB.c: 652:             I2C1RxData = SSP1BUF;
  3100  00057A  CF92 F026          	movff	3986,_I2C1RxData	;volatile
  3101                           
  3102                           ;SensorBoard_PCB.c: 654:             if(SSP1STATbits.R_nW == 0) {I2C1Status = 1;} else {
      +                          I2C1Status = 2;}
  3103  00057E  B495               	btfsc	149,2,c	;volatile
  3104  000580  EFC4  F002         	goto	i2u66_41
  3105  000584  EFC6  F002         	goto	i2u66_40
  3106  000588                     i2u66_41:
  3107  000588  EFCA  F002         	goto	i2l1518
  3108  00058C                     i2u66_40:
  3109  00058C                     
  3110                           ; BSR set to: 14
  3111  00058C  0E01               	movlw	1
  3112  00058E  6E27               	movwf	_I2C1Status^0,c
  3113  000590  EFCC  F002         	goto	i2l1520
  3114  000594                     i2l1518:
  3115                           
  3116                           ; BSR set to: 14
  3117  000594  0E02               	movlw	2
  3118  000596  6E27               	movwf	_I2C1Status^0,c
  3119  000598                     i2l1520:
  3120                           
  3121                           ; BSR set to: 14
  3122                           ;SensorBoard_PCB.c: 657:             if(I2C1Status == 2)
  3123  000598  0E02               	movlw	2
  3124  00059A  1827               	xorwf	_I2C1Status^0,w,c
  3125  00059C  A4D8               	btfss	status,2,c
  3126  00059E  EFD3  F002         	goto	i2u67_41
  3127  0005A2  EFD5  F002         	goto	i2u67_40
  3128  0005A6                     i2u67_41:
  3129  0005A6  EFDE  F002         	goto	i2l1526
  3130  0005AA                     i2u67_40:
  3131  0005AA                     
  3132                           ; BSR set to: 14
  3133                           ;SensorBoard_PCB.c: 658:             {;SensorBoard_PCB.c: 659:                 SSP1BUF =
      +                           I2C1Registers[I2C1RegIndex];
  3134  0005AA  0E01               	movlw	low _I2C1Registers
  3135  0005AC  2428               	addwf	_I2C1RegIndex^0,w,c
  3136  0005AE  6ED9               	movwf	fsr2l,c
  3137  0005B0  6ADA               	clrf	fsr2h,c
  3138  0005B2  0E00               	movlw	high _I2C1Registers
  3139  0005B4  22DA               	addwfc	fsr2h,f,c
  3140  0005B6  50DF               	movf	indf2,w,c
  3141  0005B8  6E92               	movwf	146,c	;volatile
  3142  0005BA                     
  3143                           ; BSR set to: 14
  3144                           ;SensorBoard_PCB.c: 660:                 I2C1RegIndex++;
  3145  0005BA  2A28               	incf	_I2C1RegIndex^0,f,c
  3146  0005BC                     i2l1526:
  3147                           
  3148                           ; BSR set to: 14
  3149                           ;SensorBoard_PCB.c: 663:             SSP1CON1bits.CKP = 1;
  3150  0005BC  8896               	bsf	150,4,c	;volatile
  3151                           
  3152                           ;SensorBoard_PCB.c: 664:             break;
  3153  0005BE  EF1B  F003         	goto	i2l363
  3154  0005C2                     i2l358:
  3155                           
  3156                           ; BSR set to: 14
  3157                           ;SensorBoard_PCB.c: 668:             I2C1RxData = SSP1BUF;
  3158  0005C2  CF92 F026          	movff	3986,_I2C1RxData	;volatile
  3159                           
  3160                           ;SensorBoard_PCB.c: 669:             I2C1RegIndex = I2C1RxData;
  3161  0005C6  C026  F028         	movff	_I2C1RxData,_I2C1RegIndex
  3162                           
  3163                           ;SensorBoard_PCB.c: 670:             SSP1CON1bits.CKP = 1;
  3164  0005CA  8896               	bsf	150,4,c	;volatile
  3165  0005CC                     
  3166                           ; BSR set to: 14
  3167                           ;SensorBoard_PCB.c: 671:             I2C1Status = 0;
  3168  0005CC  0E00               	movlw	0
  3169  0005CE  6E27               	movwf	_I2C1Status^0,c
  3170                           
  3171                           ;SensorBoard_PCB.c: 673:             break;
  3172  0005D0  EF1B  F003         	goto	i2l363
  3173  0005D4                     i2l359:
  3174                           
  3175                           ; BSR set to: 14
  3176                           ;SensorBoard_PCB.c: 677:             if(SSP1CON1bits.CKP == 1) {I2C1Status = 0; pFlag |=
      +                           0b00000100;} else
  3177  0005D4  A896               	btfss	150,4,c	;volatile
  3178  0005D6  EFEF  F002         	goto	i2u68_41
  3179  0005DA  EFF1  F002         	goto	i2u68_40
  3180  0005DE                     i2u68_41:
  3181  0005DE  EFF6  F002         	goto	i2l1534
  3182  0005E2                     i2u68_40:
  3183  0005E2                     
  3184                           ; BSR set to: 14
  3185  0005E2  0E00               	movlw	0
  3186  0005E4  6E27               	movwf	_I2C1Status^0,c
  3187  0005E6                     
  3188                           ; BSR set to: 14
  3189  0005E6  842D               	bsf	_pFlag^0,2,c
  3190  0005E8  EF1B  F003         	goto	i2l363
  3191  0005EC                     i2l1534:
  3192                           
  3193                           ; BSR set to: 14
  3194                           ;SensorBoard_PCB.c: 678:             {;SensorBoard_PCB.c: 679:                 SSP1BUF =
      +                           I2C1Registers[I2C1RegIndex];
  3195  0005EC  0E01               	movlw	low _I2C1Registers
  3196  0005EE  2428               	addwf	_I2C1RegIndex^0,w,c
  3197  0005F0  6ED9               	movwf	fsr2l,c
  3198  0005F2  6ADA               	clrf	fsr2h,c
  3199  0005F4  0E00               	movlw	high _I2C1Registers
  3200  0005F6  22DA               	addwfc	fsr2h,f,c
  3201  0005F8  50DF               	movf	indf2,w,c
  3202  0005FA  6E92               	movwf	146,c	;volatile
  3203  0005FC                     
  3204                           ; BSR set to: 14
  3205                           ;SensorBoard_PCB.c: 680:                 I2C1RegIndex++;
  3206  0005FC  2A28               	incf	_I2C1RegIndex^0,f,c
  3207  0005FE                     
  3208                           ; BSR set to: 14
  3209                           ;SensorBoard_PCB.c: 681:                 SSP1CON1bits.CKP = 1;
  3210  0005FE  8896               	bsf	150,4,c	;volatile
  3211  000600  EF1B  F003         	goto	i2l363
  3212  000604                     i2l1542:
  3213                           
  3214                           ; BSR set to: 14
  3215  000604  5027               	movf	_I2C1Status^0,w,c
  3216  000606  6E2E               	movwf	??_I2C1_ISR^0,c
  3217  000608  6A2F               	clrf	(??_I2C1_ISR+1)^0,c
  3218                           
  3219                           ; Switch on 2 bytes has been partitioned into a top level switch of size 1, and 1 sub-sw
      +                          itches
  3220                           ; Switch size 1, requested type "simple"
  3221                           ; Number of cases is 1, Range of values is 0 to 0
  3222                           ; switch strategies available:
  3223                           ; Name         Instructions Cycles
  3224                           ; simple_byte            4     3 (average)
  3225                           ;	Chosen strategy is simple_byte
  3226  00060A  502F               	movf	(??_I2C1_ISR+1)^0,w,c
  3227  00060C  0A00               	xorlw	0	; case 0
  3228  00060E  B4D8               	btfsc	status,2,c
  3229  000610  EF0C  F003         	goto	i2l2042
  3230  000614  EF1B  F003         	goto	i2l363
  3231  000618                     i2l2042:
  3232                           
  3233                           ; BSR set to: 14
  3234                           ; Switch size 1, requested type "simple"
  3235                           ; Number of cases is 3, Range of values is 0 to 2
  3236                           ; switch strategies available:
  3237                           ; Name         Instructions Cycles
  3238                           ; simple_byte           10     6 (average)
  3239                           ;	Chosen strategy is simple_byte
  3240  000618  502E               	movf	??_I2C1_ISR^0,w,c
  3241  00061A  0A00               	xorlw	0	; case 0
  3242  00061C  B4D8               	btfsc	status,2,c
  3243  00061E  EFBD  F002         	goto	i2l353
  3244  000622  0A01               	xorlw	1	; case 1
  3245  000624  B4D8               	btfsc	status,2,c
  3246  000626  EFE1  F002         	goto	i2l358
  3247  00062A  0A03               	xorlw	3	; case 2
  3248  00062C  B4D8               	btfsc	status,2,c
  3249  00062E  EFEA  F002         	goto	i2l359
  3250  000632  EF1B  F003         	goto	i2l363
  3251  000636                     i2l363:
  3252                           
  3253                           ; BSR set to: 14
  3254  000636  0012               	return		;funcret
  3255  000638                     __end_of_I2C1_ISR:
  3256                           	callstack 0
  3257  0000                     
  3258                           	psect	rparam
  3259  0000                     
  3260                           	psect	temp
  3261  000044                     btemp:
  3262                           	callstack 0
  3263  000044                     	ds	1
  3264  0000                     int$flags	set	btemp
  3265  0000                     wtemp8	set	btemp+1
  3266  0000                     ttemp5	set	btemp+1
  3267  0000                     ttemp6	set	btemp+4
  3268  0000                     ttemp7	set	btemp+8
  3269                           
  3270                           	psect	idloc
  3271                           
  3272                           ;Config register IDLOC0 @ 0x200000
  3273                           ;	unspecified, using default values
  3274  200000                     	org	2097152
  3275  200000  0FFF               	dw	4095
  3276                           
  3277                           ;Config register IDLOC1 @ 0x200002
  3278                           ;	unspecified, using default values
  3279  200002                     	org	2097154
  3280  200002  0FFF               	dw	4095
  3281                           
  3282                           ;Config register IDLOC2 @ 0x200004
  3283                           ;	unspecified, using default values
  3284  200004                     	org	2097156
  3285  200004  0FFF               	dw	4095
  3286                           
  3287                           ;Config register IDLOC3 @ 0x200006
  3288                           ;	unspecified, using default values
  3289  200006                     	org	2097158
  3290  200006  0FFF               	dw	4095
  3291                           
  3292                           ;Config register IDLOC4 @ 0x200008
  3293                           ;	unspecified, using default values
  3294  200008                     	org	2097160
  3295  200008  0FFF               	dw	4095
  3296                           
  3297                           ;Config register IDLOC5 @ 0x20000A
  3298                           ;	unspecified, using default values
  3299  20000A                     	org	2097162
  3300  20000A  0FFF               	dw	4095
  3301                           
  3302                           ;Config register IDLOC6 @ 0x20000C
  3303                           ;	unspecified, using default values
  3304  20000C                     	org	2097164
  3305  20000C  0FFF               	dw	4095
  3306                           
  3307                           ;Config register IDLOC7 @ 0x20000E
  3308                           ;	unspecified, using default values
  3309  20000E                     	org	2097166
  3310  20000E  0FFF               	dw	4095
  3311                           
  3312                           	psect	config
  3313                           
  3314                           ;Config register CONFIG1L @ 0x300000
  3315                           ;	External Oscillator mode Selection bits
  3316                           ;	FEXTOSC = OFF, Oscillator not enabled
  3317                           ;	Power-up default value for COSC bits
  3318                           ;	RSTOSC = HFINTOSC_64MHZ, HFINTOSC with HFFRQ = 64 MHz and CDIV = 1:1
  3319  300000                     	org	3145728
  3320  300000  8C                 	db	140
  3321                           
  3322                           ;Config register CONFIG1H @ 0x300001
  3323                           ;	Clock Out Enable bit
  3324                           ;	CLKOUTEN = OFF, CLKOUT function is disabled
  3325                           ;	Clock Switch Enable bit
  3326                           ;	CSWEN = ON, Writing to NOSC and NDIV is allowed
  3327                           ;	Fail-Safe Clock Monitor Enable bit
  3328                           ;	FCMEN = ON, Fail-Safe Clock Monitor enabled
  3329  300001                     	org	3145729
  3330  300001  FF                 	db	255
  3331                           
  3332                           ;Config register CONFIG2L @ 0x300002
  3333                           ;	Master Clear Enable bit
  3334                           ;	MCLRE = EXTMCLR, If LVP = 0, MCLR pin is MCLR; If LVP = 1, RE3 pin function is MCLR
  3335                           ;	Power-up Timer Enable bit
  3336                           ;	PWRTE = OFF, Power up timer disabled
  3337                           ;	Low-power BOR enable bit
  3338                           ;	LPBOREN = OFF, ULPBOR disabled
  3339                           ;	Brown-out Reset Enable bits
  3340                           ;	BOREN = SBORDIS, Brown-out Reset enabled , SBOREN bit is ignored
  3341  300002                     	org	3145730
  3342  300002  FF                 	db	255
  3343                           
  3344                           ;Config register CONFIG2H @ 0x300003
  3345                           ;	Brown Out Reset Voltage selection bits
  3346                           ;	BORV = VBOR_285, Brown-out Reset Voltage (VBOR) set to 2.85V
  3347                           ;	ZCD Disable bit
  3348                           ;	ZCD = OFF, ZCD disabled. ZCD can be enabled by setting the ZCDSEN bit of ZCDCON
  3349                           ;	PPSLOCK bit One-Way Set Enable bit
  3350                           ;	PPS1WAY = ON, PPSLOCK bit can be cleared and set only once; PPS registers remain locke
      +                          d after one clear/set cycle
  3351                           ;	Stack Full/Underflow Reset Enable bit
  3352                           ;	STVREN = ON, Stack full/underflow will cause Reset
  3353                           ;	Debugger Enable bit
  3354                           ;	DEBUG = OFF, Background debugger disabled
  3355                           ;	Extended Instruction Set Enable bit
  3356                           ;	XINST = OFF, Extended Instruction Set and Indexed Addressing Mode disabled
  3357  300003                     	org	3145731
  3358  300003  FC                 	db	252
  3359                           
  3360                           ;Config register CONFIG3L @ 0x300004
  3361                           ;	WDT Period Select bits
  3362                           ;	WDTCPS = WDTCPS_31, Divider ratio 1:65536; software control of WDTPS
  3363                           ;	WDT operating mode
  3364                           ;	WDTE = OFF, WDT Disabled
  3365  300004                     	org	3145732
  3366  300004  9F                 	db	159
  3367                           
  3368                           ;Config register CONFIG3H @ 0x300005
  3369                           ;	WDT Window Select bits
  3370                           ;	WDTCWS = WDTCWS_7, window always open (100%); software control; keyed access not requi
      +                          red
  3371                           ;	WDT input clock selector
  3372                           ;	WDTCCS = SC, Software Control
  3373  300005                     	org	3145733
  3374  300005  FF                 	db	255
  3375                           
  3376                           ;Config register CONFIG4L @ 0x300006
  3377                           ;	Write Protection Block 0
  3378                           ;	WRT0 = OFF, Block 0 (000800-003FFFh) not write-protected
  3379                           ;	Write Protection Block 1
  3380                           ;	WRT1 = OFF, Block 1 (004000-007FFFh) not write-protected
  3381                           ;	Write Protection Block 2
  3382                           ;	WRT2 = OFF, Block 2 (008000-00BFFFh) not write-protected
  3383                           ;	Write Protection Block 3
  3384                           ;	WRT3 = OFF, Block 3 (00C000-00FFFFh) not write-protected
  3385  300006                     	org	3145734
  3386  300006  FF                 	db	255
  3387                           
  3388                           ;Config register CONFIG4H @ 0x300007
  3389                           ;	Configuration Register Write Protection bit
  3390                           ;	WRTC = OFF, Configuration registers (300000-30000Bh) not write-protected
  3391                           ;	Boot Block Write Protection bit
  3392                           ;	WRTB = OFF, Boot Block (000000-0007FFh) not write-protected
  3393                           ;	Data EEPROM Write Protection bit
  3394                           ;	WRTD = OFF, Data EEPROM not write-protected
  3395                           ;	Scanner Enable bit
  3396                           ;	SCANE = ON, Scanner module is available for use, SCANMD bit can control the module
  3397                           ;	Low Voltage Programming Enable bit
  3398                           ;	LVP = ON, Low voltage programming enabled. MCLR/VPP pin function is MCLR. MCLRE config
      +                          uration bit is ignored
  3399  300007                     	org	3145735
  3400  300007  FF                 	db	255
  3401                           
  3402                           ;Config register CONFIG5L @ 0x300008
  3403                           ;	UserNVM Program Memory Code Protection bit
  3404                           ;	CP = OFF, UserNVM code protection disabled
  3405                           ;	DataNVM Memory Code Protection bit
  3406                           ;	CPD = OFF, DataNVM code protection disabled
  3407  300008                     	org	3145736
  3408  300008  FF                 	db	255
  3409                           
  3410                           ;Config register CONFIG5H @ 0x300009
  3411                           ;	unspecified, using default values
  3412  300009                     	org	3145737
  3413  300009  FF                 	db	255
  3414                           
  3415                           ;Config register CONFIG6L @ 0x30000A
  3416                           ;	Table Read Protection Block 0
  3417                           ;	EBTR0 = OFF, Block 0 (000800-003FFFh) not protected from table reads executed in other
      +                           blocks
  3418                           ;	Table Read Protection Block 1
  3419                           ;	EBTR1 = OFF, Block 1 (004000-007FFFh) not protected from table reads executed in other
      +                           blocks
  3420                           ;	Table Read Protection Block 2
  3421                           ;	EBTR2 = OFF, Block 2 (008000-00BFFFh) not protected from table reads executed in other
      +                           blocks
  3422                           ;	Table Read Protection Block 3
  3423                           ;	EBTR3 = OFF, Block 3 (00C000-00FFFFh) not protected from table reads executed in other
      +                           blocks
  3424  30000A                     	org	3145738
  3425  30000A  FF                 	db	255
  3426                           
  3427                           ;Config register CONFIG6H @ 0x30000B
  3428                           ;	Boot Block Table Read Protection bit
  3429                           ;	EBTRB = OFF, Boot Block (000000-0007FFh) not protected from table reads executed in ot
      +                          her blocks
  3430  30000B                     	org	3145739
  3431  30000B  FF                 	db	255
  3432                           tosu	equ	0xFFF
  3433                           tosh	equ	0xFFE
  3434                           tosl	equ	0xFFD
  3435                           stkptr	equ	0xFFC
  3436                           pclatu	equ	0xFFB
  3437                           pclath	equ	0xFFA
  3438                           pcl	equ	0xFF9
  3439                           tblptru	equ	0xFF8
  3440                           tblptrh	equ	0xFF7
  3441                           tblptrl	equ	0xFF6
  3442                           tablat	equ	0xFF5
  3443                           prodh	equ	0xFF4
  3444                           prodl	equ	0xFF3
  3445                           indf0	equ	0xFEF
  3446                           postinc0	equ	0xFEE
  3447                           postdec0	equ	0xFED
  3448                           preinc0	equ	0xFEC
  3449                           plusw0	equ	0xFEB
  3450                           fsr0h	equ	0xFEA
  3451                           fsr0l	equ	0xFE9
  3452                           wreg	equ	0xFE8
  3453                           indf1	equ	0xFE7
  3454                           postinc1	equ	0xFE6
  3455                           postdec1	equ	0xFE5
  3456                           preinc1	equ	0xFE4
  3457                           plusw1	equ	0xFE3
  3458                           fsr1h	equ	0xFE2
  3459                           fsr1l	equ	0xFE1
  3460                           bsr	equ	0xFE0
  3461                           indf2	equ	0xFDF
  3462                           postinc2	equ	0xFDE
  3463                           postdec2	equ	0xFDD
  3464                           preinc2	equ	0xFDC
  3465                           plusw2	equ	0xFDB
  3466                           fsr2h	equ	0xFDA
  3467                           fsr2l	equ	0xFD9
  3468                           status	equ	0xFD8

Data Sizes:
    Strings     0
    Constant    0
    Data        1
    BSS         45
    Persistent  0
    Stack       0

Auto Spaces:
    Space          Size  Autos    Used
    COMRAM           94     21      67
    BANK0           160      0       0
    BANK1           256      0       0
    BANK2           256      0       0
    BANK3           256      0       0
    BANK4           256      0       0
    BANK5           256      0       0
    BANK6           256      0       0
    BANK7           256      0       0
    BANK8           256      0       0
    BANK9           256      0       0
    BANK10          256      0       0
    BANK11          256      0       0
    BANK12          256      0       0
    BANK13          256      0       0
    BANK14          136      0       0

Pointer List with Targets:

    None.

Critical Paths under _main in COMRAM

    _main->_RequestSensorData
    _StartStatus->_SSP1Config
    _SaveSensor->_I2C2RequestData
    _I2C2Scan->_I2C2TransmitAddress
    _RequestSensorData->_I2C2RequestData
    _EraseSensors->_WriteToEEPROM

Critical Paths under _ISR in COMRAM

    _ISR->_I2C1_ISR

Critical Paths under _main in BANK0

    None.

Critical Paths under _ISR in BANK0

    None.

Critical Paths under _main in BANK1

    None.

Critical Paths under _ISR in BANK1

    None.

Critical Paths under _main in BANK2

    None.

Critical Paths under _ISR in BANK2

    None.

Critical Paths under _main in BANK3

    None.

Critical Paths under _ISR in BANK3

    None.

Critical Paths under _main in BANK4

    None.

Critical Paths under _ISR in BANK4

    None.

Critical Paths under _main in BANK5

    None.

Critical Paths under _ISR in BANK5

    None.

Critical Paths under _main in BANK6

    None.

Critical Paths under _ISR in BANK6

    None.

Critical Paths under _main in BANK7

    None.

Critical Paths under _ISR in BANK7

    None.

Critical Paths under _main in BANK8

    None.

Critical Paths under _ISR in BANK8

    None.

Critical Paths under _main in BANK9

    None.

Critical Paths under _ISR in BANK9

    None.

Critical Paths under _main in BANK10

    None.

Critical Paths under _ISR in BANK10

    None.

Critical Paths under _main in BANK11

    None.

Critical Paths under _ISR in BANK11

    None.

Critical Paths under _main in BANK12

    None.

Critical Paths under _ISR in BANK12

    None.

Critical Paths under _main in BANK13

    None.

Critical Paths under _ISR in BANK13

    None.

Critical Paths under _main in BANK14

    None.

Critical Paths under _ISR in BANK14

    None.

Call Graph Tables:

 ---------------------------------------------------------------------------------
 (Depth) Function   	        Calls       Base Space   Used Autos Params    Refs
 ---------------------------------------------------------------------------------
 (0) _main                                                 0     0      0    2627
                       _EraseSensors
                          _HandleIOC
                         _HandleTMR2
                         _HandleTMR4
                          _IntConfig
                          _NVMConfig
                        _PortsConfig
                  _RequestSensorData
                      _SearchProcess
                        _StartStatus
 ---------------------------------------------------------------------------------
 (1) _StartStatus                                          1     1      0      90
                                              5 COMRAM     1     1      0
                          _IOCConfig
                         _SSP1Config
                         _SSP2Config
                         _TMR2Config
 ---------------------------------------------------------------------------------
 (2) _TMR2Config                                           0     0      0       0
 ---------------------------------------------------------------------------------
 (2) _SSP2Config                                           0     0      0       0
 ---------------------------------------------------------------------------------
 (2) _SSP1Config                                           1     1      0      30
                                              4 COMRAM     1     1      0
 ---------------------------------------------------------------------------------
 (2) _IOCConfig                                            0     0      0       0
 ---------------------------------------------------------------------------------
 (1) _SearchProcess                                        0     0      0    1060
                           _I2C2Scan
                         _SaveSensor
 ---------------------------------------------------------------------------------
 (2) _SaveSensor                                           0     0      0    1045
                    _I2C2RequestData
                           _I2C2Stop
                _I2C2TransmitAddress
                   _I2C2TransmitData
                         _ReadEEPROM
                      _WriteToEEPROM
 ---------------------------------------------------------------------------------
 (2) _I2C2Scan                                             0     0      0      15
                           _I2C2Stop
                _I2C2TransmitAddress
 ---------------------------------------------------------------------------------
 (1) _RequestSensorData                                   13    13      0     985
                                              8 COMRAM    13    13      0
                    _I2C2RequestData
                           _I2C2Stop
                _I2C2TransmitAddress
                   _I2C2TransmitData
                         _ReadEEPROM
 ---------------------------------------------------------------------------------
 (3) _ReadEEPROM                                           1     1      0      15
                                              4 COMRAM     1     1      0
 ---------------------------------------------------------------------------------
 (3) _I2C2TransmitData                                     1     1      0      15
                                              4 COMRAM     1     1      0
 ---------------------------------------------------------------------------------
 (3) _I2C2TransmitAddress                                  1     1      0      15
                                              4 COMRAM     1     1      0
 ---------------------------------------------------------------------------------
 (3) _I2C2Stop                                             0     0      0       0
 ---------------------------------------------------------------------------------
 (3) _I2C2RequestData                                      4     3      1     576
                                              4 COMRAM     4     3      1
 ---------------------------------------------------------------------------------
 (1) _PortsConfig                                          0     0      0       0
 ---------------------------------------------------------------------------------
 (1) _NVMConfig                                            0     0      0       0
 ---------------------------------------------------------------------------------
 (1) _IntConfig                                            0     0      0       0
 ---------------------------------------------------------------------------------
 (1) _HandleTMR4                                           0     0      0       0
 ---------------------------------------------------------------------------------
 (1) _HandleTMR2                                           0     0      0       0
 ---------------------------------------------------------------------------------
 (1) _HandleIOC                                            0     0      0       0
 ---------------------------------------------------------------------------------
 (1) _EraseSensors                                         1     1      0     492
                                              6 COMRAM     1     1      0
                      _WriteToEEPROM
 ---------------------------------------------------------------------------------
 (3) _WriteToEEPROM                                        2     1      1     424
                                              4 COMRAM     2     1      1
 ---------------------------------------------------------------------------------
 Estimated maximum stack depth 3
 ---------------------------------------------------------------------------------
 (Depth) Function   	        Calls       Base Space   Used Autos Params    Refs
 ---------------------------------------------------------------------------------
 (4) _ISR                                                  2     2      0       0
                                              2 COMRAM     2     2      0
                           _I2C1_ISR
                            _IOC_ISR
                           _TMR2_ISR
                           _TMR4_ISR
 ---------------------------------------------------------------------------------
 (5) _TMR4_ISR                                             0     0      0       0
 ---------------------------------------------------------------------------------
 (5) _TMR2_ISR                                             0     0      0       0
 ---------------------------------------------------------------------------------
 (5) _IOC_ISR                                              0     0      0       0
 ---------------------------------------------------------------------------------
 (5) _I2C1_ISR                                             2     2      0       0
                                              0 COMRAM     2     2      0
 ---------------------------------------------------------------------------------
 Estimated maximum stack depth 5
 ---------------------------------------------------------------------------------

 Call Graph Graphs:

 _main (ROOT)
   _EraseSensors
     _WriteToEEPROM
   _HandleIOC
   _HandleTMR2
   _HandleTMR4
   _IntConfig
   _NVMConfig
   _PortsConfig
   _RequestSensorData
     _I2C2RequestData
     _I2C2Stop
     _I2C2TransmitAddress
     _I2C2TransmitData
     _ReadEEPROM
   _SearchProcess
     _I2C2Scan
       _I2C2Stop
       _I2C2TransmitAddress
     _SaveSensor
       _I2C2RequestData
       _I2C2Stop
       _I2C2TransmitAddress
       _I2C2TransmitData
       _ReadEEPROM
       _WriteToEEPROM
   _StartStatus
     _IOCConfig
     _SSP1Config
     _SSP2Config
     _TMR2Config

 _ISR (ROOT)
   _I2C1_ISR
   _IOC_ISR
   _TMR2_ISR
   _TMR4_ISR

 Address spaces:
Name               Size   Autos  Total    Cost      Usage
BIGRAM             E87      0       0      55        0.0%
EEDATA             400      0       0       0        0.0%
BITBANK13          100      0       0      30        0.0%
BANK13             100      0       0      31        0.0%
BITBANK12          100      0       0      28        0.0%
BANK12             100      0       0      29        0.0%
BITBANK11          100      0       0      26        0.0%
BANK11             100      0       0      27        0.0%
BITBANK10          100      0       0      24        0.0%
BANK10             100      0       0      25        0.0%
BITBANK9           100      0       0      22        0.0%
BANK9              100      0       0      23        0.0%
BITBANK8           100      0       0      20        0.0%
BANK8              100      0       0      21        0.0%
BITBANK7           100      0       0      18        0.0%
BANK7              100      0       0      19        0.0%
BITBANK6           100      0       0      16        0.0%
BANK6              100      0       0      17        0.0%
BITBANK5           100      0       0      14        0.0%
BANK5              100      0       0      15        0.0%
BITBANK4           100      0       0      12        0.0%
BANK4              100      0       0      13        0.0%
BITBANK3           100      0       0      10        0.0%
BANK3              100      0       0      11        0.0%
BITBANK2           100      0       0       8        0.0%
BANK2              100      0       0       9        0.0%
BITBANK1           100      0       0       6        0.0%
BANK1              100      0       0       7        0.0%
BITBANK0            A0      0       0       4        0.0%
BANK0               A0      0       0       5        0.0%
BITBANK14           88      0       0      32        0.0%
BANK14              88      0       0      33        0.0%
BITCOMRAM           5E      0       0       0        0.0%
COMRAM              5E     15      43       1       71.3%
BITBIGSFRhhlhhh     5C      0       0      41        0.0%
BITBIGSFRhhhhhl     31      0       0      35        0.0%
BITBIGSFRhlhhh      27      0       0      45        0.0%
BITBIGSFRhhhhll     1D      0       0      37        0.0%
BITBIGSFRhhll       16      0       0      44        0.0%
BITBIGSFRhll        16      0       0      49        0.0%
BITBIGSFRhhhhhh      D      0       0      34        0.0%
BITBIGSFRhlhll       9      0       0      48        0.0%
BITBIGSFRlhhh        8      0       0      50        0.0%
BITBIGSFRhhlhl       7      0       0      43        0.0%
BITBIGSFRhhlhhl      4      0       0      42        0.0%
BITBIGSFRhlhlhh      3      0       0      46        0.0%
BITBIGSFRhhhhll      3      0       0      39        0.0%
BITBIGSFRhhhhll      2      0       0      38        0.0%
BITBIGSFRhlhlhl      2      0       0      47        0.0%
BITBIGSFRhhhl        2      0       0      40        0.0%
BITBIGSFRll          2      0       0      53        0.0%
BITBIGSFRlhhl        1      0       0      51        0.0%
BITBIGSFRhhhhll      1      0       0      36        0.0%
BITBIGSFRlhl         1      0       0      52        0.0%
BIGSFR               0      0       0     200        0.0%
BITSFR_2             0      0       0     200        0.0%
SFR_2                0      0       0     200        0.0%
BITSFR_1             0      0       0     200        0.0%
SFR_1                0      0       0     200        0.0%
BITSFR               0      0       0     200        0.0%
SFR                  0      0       0     200        0.0%
STACK                0      0       0       2        0.0%
NULL                 0      0       0       0        0.0%
ABS                  0      0      43      54        0.0%
DATA                 0      0      43       3        0.0%
CODE                 0      0       0       0        0.0%


Microchip Technology PIC18 Macro Assembler V2.36 build 20220127204148 
Symbol Table                                                                                   Thu Apr 07 12:37:20 2022

                            _ID 001E                              u20 079A                              u21 0796  
                            u30 07AC                              u31 07A8                              u40 07BA  
                            u41 07B6                              u50 07CA                              u51 07C6  
                            u60 087E                              u61 087A                              u70 088C  
                            u71 0888                              u80 089C                              u81 0898  
                ??_EraseSensors 0034           ??_I2C2TransmitAddress 0032                             l201 086E  
                           l203 087E                             l220 0494                             l212 0460  
                           l301 09A0                             l213 0464                             l205 088E  
                           l231 04D4                             l223 056E                             l215 0472  
                           l232 04D8                             l224 04AA                             l216 0476  
                           l208 08A4                             l320 0442                             l304 08A6  
                           l153 0784                             l241 0512                             l314 09C8  
                           l242 051A                             l234 04E6                             l226 04B8  
                           l218 0484                             l170 0866                             l235 04EE  
                           l227 04C0                             l219 04A8                             l251 0A26  
                           l323 0454                             l307 08DC                             l244 0528  
                           l260 090A                             l156 0A46                             l340 072A  
                           l181 0946                             l165 0A0A                             l245 052A  
                           l333 0458                             l325 0370                             l309 08E0  
                           l173 0A20                             l182 094A                             l238 0500  
                           l254 0A34                             l326 0392                             l239 0504  
                           l191 079E                             l327 03B4                             l159 09EC  
                           l176 0A6A                             l168 0842                             l193 07AC  
                           l185 0A54                             l273 0102                             l169 0846  
                           l274 0124                             l179 0938                             l195 07BC  
                           l259 091C                             l275 0146                             l188 078C  
                           l276 0168                             l293 081E                             l269 02C2  
                           l198 07D2                             l296 0A7E                             u200 0A34  
                           u201 0A30                             u210 083A                             u211 0836  
                           u220 08FC                             u221 08F8                             u230 091A  
                           u231 0916                             u450 07E6                             u451 07E2  
                           u460 0800                             _ISR 0008                             u461 07FC  
                           u470 081A                             u471 0816                             u480 0986  
                           u800 0472                             u640 06DA                             u481 0982  
                           u801 046E                             u641 06D6                             u490 099A  
                           u810 0484                             u650 071A                             u491 0996  
                           u811 0480                             u651 0716                             u900 0538  
                           u820 0492                             u901 0534                             u821 048E  
                           u830 04A2                             u910 008E                             u831 049E  
                           u911 008A                             u840 04B8                             u920 00AA  
                           u841 04B4                             u921 00A6                             u850 04CE  
                           u930 00C0                             u851 04CA                             u931 00BC  
                           u860 04E6                             u940 00DA                             u861 04E2  
                           u941 00D6                             u790 0946                             u870 04FC  
                           u950 00FE                             u791 0942                             u871 04F8  
                           u951 00FA                             u880 0512                             u960 0120  
                           u881 050E                             u961 011C                             u890 0528  
                           u970 0142                             u891 0524                             u971 013E  
                           u980 0164                             u981 0160                             u990 0182  
                           u991 017E                             wreg 000FE8                            ?_ISR 002E  
               __end_of_IOC_ISR 0A64                __end_of_I2C1_ISR 0638                            l1100 088C  
                          l1102 089C                            l1200 0A1A                            l1106 08A2  
                          l1210 08FC                            l1202 0A1C                            l1220 091A  
                          l1212 0900                            l1204 0A1E                            l1206 08E2  
                          l2040 0550                            l1152 0A22                            l1080 0A52  
                          l1208 08E6                            l1160 09CA                            l1090 07CA  
              __end_of_I2C2Scan 091E                            l1218 0906                            l1154 0A36  
                          l1170 0820                            l1162 09E2                            l1084 0788  
                          l1076 0A4A                            l1156 0A40                            l1180 0852  
                          l1172 0820                            l1164 09E4                            l1350 0782  
                          l1342 072C                            l1094 07D0                            l1086 079A  
                          l1078 0A50                            l1158 0A44                            l1190 085C  
                          l1182 0854                            l1174 082A                            l1166 09E6  
                          l1352 09EE                            l1360 0A64                            l1344 0736  
                          l1088 07BA                            l1192 085E                            l1184 0856  
                          l1176 083A                            l1168 09EA                            l1370 07EE  
                          l1354 0A04                            l1362 0A68                            l1346 0760  
                          l1098 086A                            l1194 0862                            l1186 0858  
                          l1178 084A                            l1372 0800                            l1364 07D4  
                          l1380 0A7C                            l1356 0A06                            l1348 0780  
                          l1196 0864                            l1188 085A                            l1390 099A  
                          l1382 0978                            l1374 0804                            l1366 07E6  
                          l1358 0A08                            l1702 04CE                            l1198 0A0C  
                          l1392 099C                            l1384 0986                            l1376 080A  
                          l1368 07EC                            l1480 06EA                            l1386 0988  
                          l1378 081A                            l1810 01F6                            l1802 01BC  
                          l1482 06EE                            l1388 098C                            l1900 0332  
                          l1812 0208                            l1804 01C0                            l1740 008E  
                          l1492 06F6                            l1484 06F2                            l1476 06CC  
                          l1910 0374                            l1822 0238                            l1814 0212  
                          l1806 01D2                            l1494 0706                            l1486 06F2  
                          l1478 06DA                            l1680 0920                            l1728 053C  
                          l1920 03CA                            l1904 034C                            l1840 0298  
                          l1816 021E                            l1808 01E4                            l1760 00E2  
                          l1752 00C4                            l1744 0094                            l1736 0072  
                          l1496 0708                            l1690 0932                            l1682 0922  
                          l1930 0402                            l1922 03DA                            l1914 0396  
                          l1906 0350                            l1842 02AA                            l1850 02C0  
                          l1834 026C                            l1746 00AA                            l1738 007A  
                          l1498 071A                            l1692 0936                            l1684 0928  
                          l1932 0404                            l1924 03DC                            l1844 02B4  
                          l1828 0252                            l1836 0274                            l1772 0128  
                          l1860 08D6                            l1940 0644                            l1686 092C  
                          l1694 045C                            l1934 043E                            l1926 03E4  
                          l1918 03B8                            l1838 0286                            l1790 0186  
                          l1766 0106                            l1758 00DE                            l1854 08A6  
                          l1950 066A                            l1942 0648                            l1688 092E  
                          l1872 09AA                            l1696 0492                            l1928 03E6  
                          l1784 016C                            l1856 08BA                            l1960 0684  
                          l1952 066E                            l1944 0656                            l1936 0638  
                          l1874 09B4                            l1866 09A2                            l1698 04A2  
                          l1890 02FE                            l1778 014A                            l1858 08C2  
                          l1970 06AA                            l1962 0692                            l1954 0670  
                          l1946 065A                            l1938 0640                            l1876 09B6  
                          l1892 0306                            l1884 02D0                            l1796 01A0  
                          l1972 06AC                            l1964 0696                            l1956 067E  
                          l1948 065C                            l1894 030E                            l1886 02E6  
                          l1878 02C4                            l1974 06BA                            l1966 0698  
                          l1958 0682                            l1896 0318                            l1888 02EA  
                          l1976 06BE                            l1968 06A6                            l1978 06C0  
              __end_of_I2C2Stop 0A36                            u1000 019C                            u1001 0198  
                          u1010 01B8                            u1011 01B4                            u1100 0298  
                          u1020 01D2                            u1101 0294                            u1021 01CE  
                          u1110 02AA                            u1030 01E4                            u1111 02A6  
                          u1031 01E0                            u1200 038E                            u1040 01F6  
                          u1120 08BA                            u1201 038A                            u1041 01F2  
                          u1121 08B6                            u1210 03B0                            u1050 0208  
                          u1130 08D6                            u1211 03AC                            u1051 0204  
                          u1131 08D2                            u1140 09C8                            u1220 03CA  
                          u1060 0234                            u1300 06A6                            u1141 09C4  
                          u1221 03C6                            u1061 0230                            u1301 06A2  
                          u1230 03DA                            u1150 02E6                            u1070 024E  
                          u1310 06BA                            u1231 03D6                            u1151 02E2  
                          u1071 024A                            u1311 06B6                            u1240 043E  
                          u1160 02FE                            u1080 0268                            u1241 043A  
                          u1161 02FA                            u1081 0264                            u1250 0454  
                          u1170 032E                            u1090 0286                            u1251 0450  
                          u1171 032A                            u1091 0282                            u1180 0348  
                          u1260 0656                            u1181 0344                            u1261 0652  
                          _LATA 000F83                            u1190 036C                            u1270 066A  
                          _LATB 000F84                            u1191 0368                            u1271 0666  
                          _LATC 000F85                            u1280 067E                            u1281 067A  
                          u1290 0692                            u1291 068E                            _T2PR 000FBC  
                          _T4PR 000FB6                            _PIR1 000ECB                            _PIR2 000ECC  
                          _PIR3 000ECD                            _PIR4 000ECE                            _PIR5 000ECF  
                          _main 0638                            fsr2h 000FDA                            indf1 000FE7  
                          indf2 000FDF                            fsr1l 000FE1                            fsr2l 000FD9  
                          btemp 0044                            start 006E                    ___param_bank 000000  
                    _HandleTMR2 07D4                      _HandleTMR4 0A7C                           ??_ISR 0030  
       I2C2RequestData@readAddr 0032         I2C2RequestData@function 0035                           ?_main 002E  
       I2C2TransmitAddress@addr 0032                           _T2HLT 000FBE                           _IOCCF 000F1A  
                         _IOCCN 000F1B                           _IOCCP 000F1C                           _T4HLT 000FB8  
                         _T2RST 000FC0                           _T4RST 000FBA                           i2l343 0A7A  
                         i2l353 057A                           i2l346 0A72                           i2l363 0636  
                         i2l372 0062                           i2l349 0A62                           i2l358 05C2  
                         i2l359 05D4                           _PORTB 000F8E                           _PORTC 000F8F  
                         _TRISA 000F88                           _TRISB 000F89                           _TRISC 000F8A  
                   ?_TMR2Config 002E                __end_of_TMR2_ISR 0A7C                __end_of_TMR4_ISR 0A74  
                         _pFlag 002D                     ?_SSP1Config 002E                     ?_SSP2Config 002E  
                         tablat 000FF5                      _ReadEEPROM 0A48                           ttemp5 0045  
                         ttemp6 0048                           ttemp7 004C                           status 000FD8  
                         wtemp8 0045               _RequestSensorData 02C4              ?_RequestSensorData 002E  
               __initialization 094C                    __end_of_main 06CC              RequestSensorData@i 0042  
           ??_RequestSensorData 0036                          ??_main 0043                   __activetblptr 000002  
                     ??_IOC_ISR 002E               __end_of_IOCConfig 0A48               ReadEEPROM@address 0032  
                 _WriteToEEPROM 091E                          _ANSELA 000F11                          _ANSELB 000F19  
                        _ANSELC 000F21               ??_I2C2RequestData 0033                      _SaveSensor 0072  
                        _RC0PPS 000EF7                          _RC1PPS 000EF8                          _RC2PPS 000EF9  
                        _RC3PPS 000EFA                          i2l2042 0618                          i2l1500 0A74  
                        i2l1510 0A58                          i2l1502 0A76                          i2l1520 0598  
                        i2l1512 0A5E                          i2l1504 0A6C                          i2l1530 05E2  
                        i2l1522 05AA                          i2l1514 0570                          i2l1506 0A6E  
                        i2l1532 05E6                          i2l1524 05BA                          i2l1516 058C  
                        i2l1508 0A56                          i2l1534 05EC                          i2l1526 05BC  
                        i2l1518 0594                          i2l1542 0604                          i2l1536 05FC  
                        i2l1528 05CC                          i2l1560 0012                          i2l1538 05FE  
                        i2l1570 004A                          i2l1562 0022                          i2l1572 004E  
                        i2l1564 0026                          i2l1574 005E                          i2l1566 0036  
                        i2l1568 003A       RequestSensorData@sensorID 003D                          _NVMADR 000F7E  
     __end_of_RequestSensorData 045A                          _NVMDAT 000F80            __end_of_EraseSensors 09CA  
            SSP1Config@slaveAdd 0032                     ?_HandleTMR2 002E                     ?_HandleTMR4 002E  
             __end_of_NVMConfig 0A6C                       ?_I2C1_ISR 002E                          clear_0 0964  
                     ?_I2C2Scan 002E                  StartStatus@ptr 0033                          isa$std 000001  
                     ?_I2C2Stop 002E        __end_of_I2C2TransmitData 08A6                    __pdataCOMRAM 0043  
                        tblptrh 000FF7                          tblptrl 000FF6                          tblptru 000FF8  
                ?_WriteToEEPROM 0032                   ??_PortsConfig 0032                     ?_ReadEEPROM 002E  
                    __accesstop 0060         __end_of__initialization 096A     RequestSensorData@lastSensor 003F  
             __end_of_HandleIOC 09A2                   ___rparam_used 000001            I2C2TransmitData@data 0032  
                __pcstackCOMRAM 002E                       ?_TMR2_ISR 002E                       ?_TMR4_ISR 002E  
                 ??_StartStatus 0033                      ??_I2C1_ISR 002E                      ??_I2C2Scan 0033  
             __end_of_IntConfig 0A0C                      ??_I2C2Stop 0032             RequestSensorData@i2 0040  
                   ?_SaveSensor 002E      RequestSensorData@byteCount 0041             __end_of_PortsConfig 0786  
   __end_of_I2C2TransmitAddress 07D4                      ??_TMR2_ISR 002E                      ??_TMR4_ISR 002E  
                 _SearchProcess 08A6                         _IOC_ISR 0A56                         _T2Delay 0043  
           __end_of_StartStatus 072C                 ??_WriteToEEPROM 0033                    ??_TMR2Config 0032  
                       _T2Count 002A                         _T4Count 0029                         i2u70_40 0036  
                       i2u70_41 0032                         i2u71_40 004A                         i2u71_41 0046  
                       _NVMCON2 000F82                         i2u72_40 005E                         i2u72_41 005A  
                       i2u66_40 058C                         i2u66_41 0588                         i2u67_40 05AA  
                       i2u67_41 05A6                         i2u68_40 05E2                         i2u68_41 05DE  
                       i2u69_40 0022                         i2u69_41 001E                         _SSP1ADD 000F93  
                       _SSP2ADD 000E93                         _PPSLOCK 000EA0                         _SSP1BUF 000F92  
                       _SSP2BUF 000E92                         _SSP1MSK 000F94                    ??_SSP1Config 0032  
                  ??_SSP2Config 0032                         __Hparam 0000                         __Lparam 0000  
            __end_of_TMR2Config 09EE                  ?_SearchProcess 002E                         __pcinit 094C  
                       __ramtop 0F00              __end_of_SSP1Config 0868              __end_of_SSP2Config 0A22  
                       __ptext0 0638                         __ptext1 06CC                         __ptext2 09CA  
                       __ptext3 0A0C                         __ptext4 0820                         __ptext5 0A36  
                       __ptext6 08A6                         __ptext7 0072                         __ptext8 08E2  
                       __ptext9 02C4                    _EraseSensors 09A2                 _I2C2RequestData 045A  
                     _T2CLKbits 000FBF                       _T2CONbits 000FBD                       _T4CLKbits 000FB9  
                     _T4CONbits 000FB7            end_of_initialization 096A                       _IOCConfig 0A36  
                   _PortsConfig 072C                   __Lmediumconst 0000                    ??_HandleTMR2 0032  
                  ??_HandleTMR4 0032                         postinc0 000FEE                     _StartStatus 06CC  
                     _NVMConfig 0A64               ?_I2C2TransmitData 002E              ??_I2C2TransmitData 0032  
                    ?_IOCConfig 002E              __end_of_HandleTMR2 0820              __end_of_HandleTMR4 0A80  
                  ??_ReadEEPROM 0032                       _HandleIOC 0978         __end_of_I2C2RequestData 0570  
               ??_SearchProcess 0036                   __pidataCOMRAM 0A80                      ?_NVMConfig 002E  
            __end_of_ReadEEPROM 0A56                       _IntConfig 09EE             start_initialization 094C  
                   __end_of_ISR 006E                    ??_SaveSensor 0036                      ?_HandleIOC 002E  
            __end_of_SaveSensor 02C4                        ?_IOC_ISR 002E                      ?_IntConfig 002E  
                   __pbssCOMRAM 0001                     ??_IOCConfig 0032                       __pintcode 0008  
              ?_I2C2RequestData 0032                        _I2C2Data 0025                        _I2C1_ISR 0570  
                      _I2C2Scan 08E2                        _I2C2Stop 0A22                     ??_NVMConfig 0032  
         __end_of_WriteToEEPROM 094C                    ?_PortsConfig 002E                        _PIE0bits 000EC2  
                      _PIE3bits 000EC5                        _PIE4bits 000EC6                      _I2C1RxData 0026  
                      _PIR0bits 000ECA                        _PIR3bits 000ECD                        _PIR4bits 000ECE  
                    _I2C1Status 0027                     ??_HandleIOC 0032                        _TMR2_ISR 0A74  
                      _TMR4_ISR 0A6C                    ?_StartStatus 002E                     ??_IntConfig 0032  
                      __Hrparam 0000                        __Lrparam 0000                     _scanAddress 002C  
                 _I2C1Registers 0001                        __ptext10 0A48                        __ptext11 0868  
                      __ptext20 0978                        __ptext12 0786                        __ptext21 09A2  
                      __ptext13 0A22                        __ptext22 091E                        __ptext14 045A  
                      __ptext15 072C                        __ptext24 0A6C                        __ptext16 0A64  
                      __ptext25 0A74                        __ptext17 09EE                        __ptext26 0A56  
                      __ptext18 0A7C                        __ptext27 0570                        __ptext19 07D4  
                      _distData 0022                    _SSP1CON1bits 000F96                    _SSP1CON2bits 000F97  
                  _SSP1CON3bits 000F98                    _SSP2CON1bits 000E96                    _SSP2CON2bits 000E97  
          WriteToEEPROM@address 0033                        isa$xinst 000000                        int$flags 0044  
                  _SSP1STATbits 000F95           __end_of_SearchProcess 08E2                    _SSP2STATbits 000E95  
                    _INTCONbits 000FF2                     _NVMCON1bits 000F81                    _I2C1RegIndex 0028  
                      intlevel2 0000  RequestSensorData@distanceBytes 003E             _I2C2TransmitAddress 0786  
                   _PPSLOCKbits 000EA0                WriteToEEPROM@val 0032                     _sensorEEADR 002B  
                 EraseSensors@i 0034                   ?_EraseSensors 002E            ?_I2C2TransmitAddress 002E  
                    _SSP1DATPPS 000EB8                      _SSP2DATPPS 000E90                      _SSP1CLKPPS 000EB7  
                    _SSP2CLKPPS 000E8F                      _TMR2Config 09CA                      _SSP1Config 0820  
                    _SSP2Config 0A0C                _I2C2TransmitData 0868  
