

Microchip MPLAB XC8 Assembler V2.36 build 20220127204148 
                                                                                               Fri Mar 18 13:18:19 2022

Microchip MPLAB XC8 C Compiler v2.36 (Free license) build 20220127204148 Og1 
     1                           	processor	18F46K40
     2                           	fnconf	rparam,??,?,0
     3                           	pagewidth 120
     4                           	opt	flic
     5                           	psect	cinit,global,reloc=2,class=CODE,delta=1
     6                           	psect	bssCOMRAM,global,class=COMRAM,space=1,delta=1,lowdata,noexec
     7                           	psect	cstackCOMRAM,global,class=COMRAM,space=1,delta=1,lowdata,noexec
     8                           	psect	text0,global,reloc=2,class=CODE,delta=1
     9                           	psect	text1,global,reloc=2,class=CODE,delta=1
    10                           	psect	text2,global,reloc=2,class=CODE,delta=1
    11                           	psect	text3,global,reloc=2,class=CODE,delta=1
    12                           	psect	text4,global,reloc=2,class=CODE,delta=1
    13                           	psect	text5,global,reloc=2,class=CODE,delta=1
    14                           	psect	text6,global,reloc=2,class=CODE,delta=1
    15                           	psect	text7,global,reloc=2,class=CODE,delta=1
    16                           	psect	text8,global,reloc=2,class=CODE,delta=1
    17                           	psect	text9,global,reloc=2,class=CODE,delta=1
    18                           	psect	text10,global,reloc=2,class=CODE,delta=1
    19                           	psect	text11,global,reloc=2,class=CODE,delta=1
    20                           	psect	text12,global,reloc=2,class=CODE,delta=1
    21                           	psect	text13,global,reloc=2,class=CODE,delta=1
    22                           	psect	text14,global,reloc=2,class=CODE,delta=1
    23                           	psect	text15,global,reloc=2,class=CODE,delta=1
    24                           	psect	text16,global,reloc=2,class=CODE,delta=1
    25                           	psect	text17,global,reloc=2,class=CODE,delta=1
    26                           	psect	text18,global,reloc=2,class=CODE,delta=1
    27                           	psect	text19,global,reloc=2,class=CODE,delta=1
    28                           	psect	text20,global,reloc=2,class=CODE,delta=1
    29                           	psect	text21,global,reloc=2,class=CODE,delta=1
    30                           	psect	text22,global,reloc=2,class=CODE,delta=1
    31                           	psect	intcode,global,reloc=2,class=CODE,delta=1
    32                           	psect	text24,global,reloc=2,class=CODE,delta=1
    33                           	psect	text25,global,reloc=2,class=CODE,delta=1
    34                           	psect	text26,global,reloc=2,class=CODE,delta=1
    35                           	psect	text27,global,reloc=2,class=CODE,delta=1
    36                           	psect	intsave_regs,global,class=BIGRAM,space=1,delta=1,noexec
    37                           	psect	rparam,global,class=COMRAM,space=1,delta=1,noexec
    38                           	psect	temp,global,ovrld,common,class=COMRAM,space=1,delta=1
    39                           	psect	idloc,global,abs,ovrld,class=IDLOC,space=5,delta=1,noexec
    40                           	psect	config,global,abs,ovrld,class=CONFIG,space=4,delta=1,noexec
    41  0000                     
    42                           ; Version 2.36
    43                           ; Generated 28/01/2022 GMT
    44                           ; 
    45                           ; Copyright © 2022, Microchip Technology Inc. and its subsidiaries ("Microchip")
    46                           ; All rights reserved.
    47                           ; 
    48                           ; This software is developed by Microchip Technology Inc. and its subsidiaries ("Microch
      +                          ip").
    49                           ; 
    50                           ; Redistribution and use in source and binary forms, with or without modification, are
    51                           ; permitted provided that the following conditions are met:
    52                           ; 
    53                           ;     1. Redistributions of source code must retain the above copyright notice, this lis
      +                          t of
    54                           ;        conditions and the following disclaimer.
    55                           ; 
    56                           ;     2. Redistributions in binary form must reproduce the above copyright notice, this 
      +                          list
    57                           ;        of conditions and the following disclaimer in the documentation and/or other
    58                           ;        materials provided with the distribution. Publication is not required when
    59                           ;        this file is used in an embedded application.
    60                           ; 
    61                           ;     3. Microchip's name may not be used to endorse or promote products derived from th
      +                          is
    62                           ;        software without specific prior written permission.
    63                           ; 
    64                           ; THIS SOFTWARE IS PROVIDED BY MICROCHIP "AS IS" AND ANY EXPRESS OR IMPLIED WARRANTIES,
    65                           ; INCLUDING, BUT NOT LIMITED TO, THE IMPLIED WARRANTIES OF MERCHANTABILITY AND FITNESS F
      +                          OR
    66                           ; PURPOSE ARE DISCLAIMED.  IN NO EVENT SHALL MICROCHIP BE LIABLE FOR ANY DIRECT, INDIREC
      +                          T,
    67                           ; INCIDENTAL, SPECIAL, EXEMPLARY, OR CONSEQUENTIAL DAMAGES (INCLUDING BUT NOT LIMITED TO
    68                           ; PROCUREMENT OF SUBSTITUTE GOODS OR SERVICES; LOSS OF USE, DATA OR PROFITS; OR BUSINESS
    69                           ; INTERRUPTION) HOWSOEVER CAUSED AND ON ANY THEORY OF LIABILITY, WHETHER IN CONTRACT, ST
      +                          RICT
    70                           ; LIABILITY, OR TORT (INCLUDING NEGLIGENCE OR OTHERWISE) ARISING IN ANY WAY OUT OF THE U
      +                          SE OF
    71                           ; THIS SOFTWARE, EVEN IF ADVISED OF THE POSSIBILITY OF SUCH DAMAGE.
    72                           ; 
    73                           ; 
    74                           ; Code-generator required, PIC18F46K40 Definitions
    75                           ; 
    76                           ; SFR Addresses
    77  0000                     _IOCCF	set	3866
    78  0000                     _NVMCON2	set	3970
    79  0000                     _NVMDAT	set	3968
    80  0000                     _SSP1STATbits	set	3989
    81  0000                     _SSP1CON1bits	set	3990
    82  0000                     _SSP1MSK	set	3988
    83  0000                     _PIR3	set	3789
    84  0000                     _PIR2	set	3788
    85  0000                     _PIR1	set	3787
    86  0000                     _T4HLT	set	4024
    87  0000                     _PIR4bits	set	3790
    88  0000                     _T2HLT	set	4030
    89  0000                     _IOCCN	set	3867
    90  0000                     _IOCCP	set	3868
    91  0000                     _ANSELC	set	3873
    92  0000                     _PIR3bits	set	3789
    93  0000                     _PIR4	set	3790
    94  0000                     _PPSLOCKbits	set	3744
    95  0000                     _SSP2CLKPPS	set	3727
    96  0000                     _SSP2DATPPS	set	3728
    97  0000                     _PPSLOCK	set	3744
    98  0000                     _SSP1CLKPPS	set	3767
    99  0000                     _SSP1DATPPS	set	3768
   100  0000                     _RC0PPS	set	3831
   101  0000                     _RD0PPS	set	3839
   102  0000                     _RC1PPS	set	3832
   103  0000                     _PIE0bits	set	3778
   104  0000                     _PIR0bits	set	3786
   105  0000                     _ANSELA	set	3857
   106  0000                     _LATA	set	3971
   107  0000                     _RD1PPS	set	3840
   108  0000                     _SSP2BUF	set	3730
   109  0000                     _SSP2ADD	set	3731
   110  0000                     _TRISA	set	3976
   111  0000                     _LATD	set	3974
   112  0000                     _LATC	set	3973
   113  0000                     _LATB	set	3972
   114  0000                     _ANSELB	set	3865
   115  0000                     _ANSELD	set	3878
   116  0000                     _NVMADR	set	3966
   117  0000                     _NVMCON1bits	set	3969
   118  0000                     _PORTB	set	3982
   119  0000                     _T4PR	set	4022
   120  0000                     _T4CONbits	set	4023
   121  0000                     _T4CLKbits	set	4025
   122  0000                     _T2PR	set	4028
   123  0000                     _T2CONbits	set	4029
   124  0000                     _T2CLKbits	set	4031
   125  0000                     _TRISD	set	3979
   126  0000                     _TRISC	set	3978
   127  0000                     _TRISB	set	3977
   128  0000                     _PIE3bits	set	3781
   129  0000                     _PIE4bits	set	3782
   130  0000                     _INTCONbits	set	4082
   131  0000                     _T2RST	set	4032
   132  0000                     _PIR5	set	3791
   133  0000                     _T4RST	set	4026
   134  0000                     _SSP1BUF	set	3986
   135  0000                     _PORTC	set	3983
   136  0000                     _SSP1ADD	set	3987
   137  0000                     _SSP1CON3bits	set	3992
   138  0000                     _SSP1CON2bits	set	3991
   139  0000                     _SSP2STATbits	set	3733
   140  0000                     _SSP2CON1bits	set	3734
   141  0000                     _SSP2CON2bits	set	3735
   142                           
   143                           ; #config settings
   144                           
   145                           	psect	cinit
   146  0009D8                     __pcinit:
   147                           	callstack 0
   148  0009D8                     start_initialization:
   149                           	callstack 0
   150  0009D8                     __initialization:
   151                           	callstack 0
   152                           
   153                           ; Clear objects allocated to COMRAM (46 bytes)
   154  0009D8  EE00  F001         	lfsr	0,__pbssCOMRAM
   155  0009DC  0E2E               	movlw	46
   156  0009DE                     clear_0:
   157  0009DE  6AEE               	clrf	postinc0,c
   158  0009E0  06E8               	decf	wreg,f,c
   159  0009E2  E1FD               	bnz	clear_0
   160  0009E4                     end_of_initialization:
   161                           	callstack 0
   162  0009E4                     __end_of__initialization:
   163                           	callstack 0
   164  0009E4  903D               	bcf	int$flags,0,c	;clear compiler interrupt flag (level 1)
   165  0009E6  923D               	bcf	int$flags,1,c	;clear compiler interrupt flag (level 2)
   166  0009E8  0E00               	movlw	low (__Lmediumconst shr (0+16))
   167  0009EA  6EF8               	movwf	tblptru,c
   168  0009EC  0100               	movlb	0
   169  0009EE  EF13  F003         	goto	_main	;jump to C main() function
   170                           
   171                           	psect	bssCOMRAM
   172  000001                     __pbssCOMRAM:
   173                           	callstack 0
   174  000001                     _I2C1Registers:
   175                           	callstack 0
   176  000001                     	ds	29
   177  00001E                     _ID:
   178                           	callstack 0
   179  00001E                     	ds	4
   180  000022                     _distData:
   181                           	callstack 0
   182  000022                     	ds	3
   183  000025                     _I2C2Data:
   184                           	callstack 0
   185  000025                     	ds	1
   186  000026                     _I2C1RxData:
   187                           	callstack 0
   188  000026                     	ds	1
   189  000027                     _I2C1Status:
   190                           	callstack 0
   191  000027                     	ds	1
   192  000028                     _I2C1RegIndex:
   193                           	callstack 0
   194  000028                     	ds	1
   195  000029                     _T4Count:
   196                           	callstack 0
   197  000029                     	ds	1
   198  00002A                     _T2Delay:
   199                           	callstack 0
   200  00002A                     	ds	1
   201  00002B                     _T2Count:
   202                           	callstack 0
   203  00002B                     	ds	1
   204  00002C                     _sensorEEADR:
   205                           	callstack 0
   206  00002C                     	ds	1
   207  00002D                     _scanAddress:
   208                           	callstack 0
   209  00002D                     	ds	1
   210  00002E                     _pFlag:
   211                           	callstack 0
   212  00002E                     	ds	1
   213                           
   214                           	psect	cstackCOMRAM
   215  00002F                     __pcstackCOMRAM:
   216                           	callstack 0
   217  00002F                     ??_I2C1_ISR:
   218  00002F                     
   219                           ; 1 bytes @ 0x0
   220  00002F                     	ds	2
   221  000031                     ??_ISR:
   222                           
   223                           ; 1 bytes @ 0x2
   224  000031                     	ds	2
   225  000033                     SSP1Config@slaveAdd:
   226                           	callstack 0
   227  000033                     WriteToEEPROM@val:
   228                           	callstack 0
   229  000033                     ReadEEPROM@address:
   230                           	callstack 0
   231  000033                     I2C2TransmitAddress@addr:
   232                           	callstack 0
   233  000033                     I2C2TransmitData@data:
   234                           	callstack 0
   235  000033                     I2C2RequestData@readAddr:
   236                           	callstack 0
   237                           
   238                           ; 1 bytes @ 0x4
   239  000033                     	ds	1
   240  000034                     ??_I2C2RequestData:
   241  000034                     WriteToEEPROM@address:
   242                           	callstack 0
   243  000034                     StartStatus@ptr:
   244                           	callstack 0
   245                           
   246                           ; 1 bytes @ 0x5
   247  000034                     	ds	1
   248  000035                     EraseSensors@i:
   249                           	callstack 0
   250                           
   251                           ; 1 bytes @ 0x6
   252  000035                     	ds	1
   253  000036                     I2C2RequestData@function:
   254                           	callstack 0
   255                           
   256                           ; 1 bytes @ 0x7
   257  000036                     	ds	1
   258  000037                     RequestData@sensorID:
   259                           	callstack 0
   260                           
   261                           ; 1 bytes @ 0x8
   262  000037                     	ds	1
   263  000038                     RequestData@distanceBytes:
   264                           	callstack 0
   265                           
   266                           ; 1 bytes @ 0x9
   267  000038                     	ds	1
   268  000039                     RequestData@lastSensor:
   269                           	callstack 0
   270                           
   271                           ; 1 bytes @ 0xA
   272  000039                     	ds	1
   273  00003A                     RequestData@i2:
   274                           	callstack 0
   275                           
   276                           ; 1 bytes @ 0xB
   277  00003A                     	ds	1
   278  00003B                     RequestData@byteCount:
   279                           	callstack 0
   280                           
   281                           ; 1 bytes @ 0xC
   282  00003B                     	ds	1
   283  00003C                     RequestData@i:
   284                           	callstack 0
   285                           
   286                           ; 1 bytes @ 0xD
   287  00003C                     	ds	1
   288  00003D                     
   289                           ; 1 bytes @ 0xE
   290 ;;
   291 ;;Main: autosize = 0, tempsize = 0, incstack = 0, save=0
   292 ;;
   293 ;; *************** function _main *****************
   294 ;; Defined at:
   295 ;;		line 703 in file "SensorBoard.c"
   296 ;; Parameters:    Size  Location     Type
   297 ;;		None
   298 ;; Auto vars:     Size  Location     Type
   299 ;;		None
   300 ;; Return value:  Size  Location     Type
   301 ;;                  1    wreg      void 
   302 ;; Registers used:
   303 ;;		wreg, fsr1l, fsr1h, fsr2l, fsr2h, status,2, status,0, cstack
   304 ;; Tracked objects:
   305 ;;		On entry : 0/0
   306 ;;		On exit  : 0/0
   307 ;;		Unchanged: 0/0
   308 ;; Data sizes:     COMRAM   BANK0   BANK1   BANK2   BANK3   BANK4   BANK5   BANK6   BANK7   BANK8   BANK9  BANK10  BANK1
      +1  BANK12  BANK13  BANK14
   309 ;;      Params:         0       0       0       0       0       0       0       0       0       0       0       0       
      +0       0       0       0
   310 ;;      Locals:         0       0       0       0       0       0       0       0       0       0       0       0       
      +0       0       0       0
   311 ;;      Temps:          0       0       0       0       0       0       0       0       0       0       0       0       
      +0       0       0       0
   312 ;;      Totals:         0       0       0       0       0       0       0       0       0       0       0       0       
      +0       0       0       0
   313 ;;Total ram usage:        0 bytes
   314 ;; Hardware stack levels required when called: 5
   315 ;; This function calls:
   316 ;;		_EraseSensors
   317 ;;		_HandleIOC
   318 ;;		_HandleTMR2
   319 ;;		_HandleTMR4
   320 ;;		_IntConfig
   321 ;;		_NVMConfig
   322 ;;		_PortsConfig
   323 ;;		_RequestData
   324 ;;		_SearchProcess
   325 ;;		_StartStatus
   326 ;; This function is called by:
   327 ;;		Startup code after reset
   328 ;; This function uses a non-reentrant model
   329 ;;
   330                           
   331                           	psect	text0
   332  000626                     __ptext0:
   333                           	callstack 0
   334  000626                     _main:
   335                           	callstack 26
   336  000626                     
   337                           ;SensorBoard.c: 705:     PortsConfig();
   338  000626  EC5B  F003         	call	_PortsConfig	;wreg free
   339                           
   340                           ;SensorBoard.c: 706:     NVMConfig();
   341  00062A  EC25  F005         	call	_NVMConfig	;wreg free
   342  00062E                     
   343                           ;SensorBoard.c: 708:     StartStatus();
   344  00062E  EC8F  F003         	call	_StartStatus	;wreg free
   345  000632                     
   346                           ;SensorBoard.c: 710:     IntConfig();
   347  000632  ECDD  F004         	call	_IntConfig	;wreg free
   348  000636                     l1951:
   349                           
   350                           ;SensorBoard.c: 713:     {;SensorBoard.c: 716:         if(pFlag & 0b10000000) {HandleTMR
      +                          4(); pFlag &= 0b01111111;}
   351  000636  AE2E               	btfss	_pFlag^0,7,c
   352  000638  EF20  F003         	goto	u1271
   353  00063C  EF22  F003         	goto	u1270
   354  000640                     u1271:
   355  000640  EF25  F003         	goto	l1957
   356  000644                     u1270:
   357  000644  EC31  F005         	call	_HandleTMR4	;wreg free
   358  000648  9E2E               	bcf	_pFlag^0,7,c
   359  00064A                     l1957:
   360                           
   361                           ;SensorBoard.c: 717:         if(pFlag & 0b01000000) {HandleTMR2(); pFlag &= 0b10111111;}
   362  00064A  AC2E               	btfss	_pFlag^0,6,c
   363  00064C  EF2A  F003         	goto	u1281
   364  000650  EF2C  F003         	goto	u1280
   365  000654                     u1281:
   366  000654  EF2F  F003         	goto	l1963
   367  000658                     u1280:
   368  000658  ECE6  F003         	call	_HandleTMR2	;wreg free
   369  00065C  9C2E               	bcf	_pFlag^0,6,c
   370  00065E                     l1963:
   371                           
   372                           ;SensorBoard.c: 718:         if(pFlag & 0b00100000) {HandleIOC(); pFlag &= 0b11011111;}
   373  00065E  AA2E               	btfss	_pFlag^0,5,c
   374  000660  EF34  F003         	goto	u1291
   375  000664  EF36  F003         	goto	u1290
   376  000668                     u1291:
   377  000668  EF39  F003         	goto	l1969
   378  00066C                     u1290:
   379  00066C  ECA2  F004         	call	_HandleIOC	;wreg free
   380  000670  9A2E               	bcf	_pFlag^0,5,c
   381  000672                     l1969:
   382                           
   383                           ;SensorBoard.c: 720:         if(pFlag & 0b00010000) {SearchProcess(); pFlag &= 0b1110111
      +                          1;}
   384  000672  A82E               	btfss	_pFlag^0,4,c
   385  000674  EF3E  F003         	goto	u1301
   386  000678  EF40  F003         	goto	u1300
   387  00067C                     u1301:
   388  00067C  EF43  F003         	goto	l1975
   389  000680                     u1300:
   390  000680  EC4F  F004         	call	_SearchProcess	;wreg free
   391  000684  982E               	bcf	_pFlag^0,4,c
   392  000686                     l1975:
   393                           
   394                           ;SensorBoard.c: 721:         if(pFlag & 0b00001000) {EraseSensors(); pFlag &= 0b11110111
      +                          ;}
   395  000686  A62E               	btfss	_pFlag^0,3,c
   396  000688  EF48  F003         	goto	u1311
   397  00068C  EF4A  F003         	goto	u1310
   398  000690                     u1311:
   399  000690  EF4D  F003         	goto	l1981
   400  000694                     u1310:
   401  000694  ECB7  F004         	call	_EraseSensors	;wreg free
   402  000698  962E               	bcf	_pFlag^0,3,c
   403  00069A                     l1981:
   404                           
   405                           ;SensorBoard.c: 722:         if(pFlag & 0b00000100) {RequestData(); pFlag &= 0b11111011;
      +                          }
   406  00069A  A42E               	btfss	_pFlag^0,2,c
   407  00069C  EF52  F003         	goto	u1321
   408  0006A0  EF54  F003         	goto	u1320
   409  0006A4                     u1321:
   410  0006A4  EF1B  F003         	goto	l1951
   411  0006A8                     u1320:
   412  0006A8  EC62  F001         	call	_RequestData	;wreg free
   413  0006AC  942E               	bcf	_pFlag^0,2,c
   414  0006AE  EF1B  F003         	goto	l1951
   415  0006B2  EF37  F000         	goto	start
   416  0006B6                     __end_of_main:
   417                           	callstack 0
   418                           
   419 ;; *************** function _StartStatus *****************
   420 ;; Defined at:
   421 ;;		line 574 in file "SensorBoard.c"
   422 ;; Parameters:    Size  Location     Type
   423 ;;		None
   424 ;; Auto vars:     Size  Location     Type
   425 ;;  ptr             1    5[COMRAM] unsigned char 
   426 ;; Return value:  Size  Location     Type
   427 ;;                  1    wreg      void 
   428 ;; Registers used:
   429 ;;		wreg, fsr2l, fsr2h, status,2, status,0, cstack
   430 ;; Tracked objects:
   431 ;;		On entry : 0/0
   432 ;;		On exit  : 0/0
   433 ;;		Unchanged: 0/0
   434 ;; Data sizes:     COMRAM   BANK0   BANK1   BANK2   BANK3   BANK4   BANK5   BANK6   BANK7   BANK8   BANK9  BANK10  BANK1
      +1  BANK12  BANK13  BANK14
   435 ;;      Params:         0       0       0       0       0       0       0       0       0       0       0       0       
      +0       0       0       0
   436 ;;      Locals:         1       0       0       0       0       0       0       0       0       0       0       0       
      +0       0       0       0
   437 ;;      Temps:          0       0       0       0       0       0       0       0       0       0       0       0       
      +0       0       0       0
   438 ;;      Totals:         1       0       0       0       0       0       0       0       0       0       0       0       
      +0       0       0       0
   439 ;;Total ram usage:        1 bytes
   440 ;; Hardware stack levels used: 1
   441 ;; Hardware stack levels required when called: 3
   442 ;; This function calls:
   443 ;;		_IOCConfig
   444 ;;		_SSP1Config
   445 ;;		_SSP2Config
   446 ;;		_TMR2Config
   447 ;; This function is called by:
   448 ;;		_main
   449 ;; This function uses a non-reentrant model
   450 ;;
   451                           
   452                           	psect	text1
   453  00071E                     __ptext1:
   454                           	callstack 0
   455  00071E                     _StartStatus:
   456                           	callstack 27
   457  00071E                     
   458                           ;SensorBoard.c: 577:     if(PORTC & 0b01000000)
   459  00071E  AC8F               	btfss	143,6,c	;volatile
   460  000720  EF94  F003         	goto	u641
   461  000724  EF96  F003         	goto	u640
   462  000728                     u641:
   463  000728  EF9E  F003         	goto	l1491
   464  00072C                     u640:
   465  00072C                     
   466                           ;SensorBoard.c: 578:     {;SensorBoard.c: 581:         SSP2Config();
   467  00072C  ECF9  F004         	call	_SSP2Config	;wreg free
   468                           
   469                           ;SensorBoard.c: 582:         TMR2Config();
   470  000730  ECCB  F004         	call	_TMR2Config	;wreg free
   471                           
   472                           ;SensorBoard.c: 583:         IOCConfig();
   473  000734  EC0E  F005         	call	_IOCConfig	;wreg free
   474                           
   475                           ;SensorBoard.c: 584:     }
   476  000738  EFA2  F003         	goto	l1495
   477  00073C                     l1491:
   478                           
   479                           ;SensorBoard.c: 586:     {;SensorBoard.c: 589:         SSP1Config();
   480  00073C  EC0C  F004         	call	_SSP1Config	;wreg free
   481  000740                     
   482                           ;SensorBoard.c: 590:         SSP2Config();
   483  000740  ECF9  F004         	call	_SSP2Config	;wreg free
   484  000744                     l1495:
   485  000744                     
   486                           ;SensorBoard.c: 594:     for(ptr = 0; ptr != 29; ptr++)
   487  000744  0E00               	movlw	0
   488  000746  6E34               	movwf	StartStatus@ptr^0,c
   489  000748                     l1503:
   490                           
   491                           ;SensorBoard.c: 595:     {;SensorBoard.c: 596:         I2C1Registers[ptr] = ptr;
   492  000748  0E01               	movlw	low _I2C1Registers
   493  00074A  2434               	addwf	StartStatus@ptr^0,w,c
   494  00074C  6ED9               	movwf	fsr2l,c
   495  00074E  6ADA               	clrf	fsr2h,c
   496  000750  0E00               	movlw	high _I2C1Registers
   497  000752  22DA               	addwfc	fsr2h,f,c
   498  000754  C034  FFDF         	movff	StartStatus@ptr,indf2
   499  000758                     
   500                           ;SensorBoard.c: 597:     }
   501  000758  2A34               	incf	StartStatus@ptr^0,f,c
   502  00075A  0E1D               	movlw	29
   503  00075C  1834               	xorwf	StartStatus@ptr^0,w,c
   504  00075E  A4D8               	btfss	status,2,c
   505  000760  EFB4  F003         	goto	u651
   506  000764  EFB6  F003         	goto	u650
   507  000768                     u651:
   508  000768  EFA4  F003         	goto	l1503
   509  00076C                     u650:
   510  00076C                     
   511                           ;SensorBoard.c: 598:     I2C1Registers[25] = 'M';
   512  00076C  0E4D               	movlw	77
   513  00076E  6E1A               	movwf	(_I2C1Registers+25)^0,c
   514                           
   515                           ;SensorBoard.c: 599:     I2C1Registers[26] = 'O';
   516  000770  0E4F               	movlw	79
   517  000772  6E1B               	movwf	(_I2C1Registers+26)^0,c
   518                           
   519                           ;SensorBoard.c: 600:     I2C1Registers[27] = 'D';
   520  000774  0E44               	movlw	68
   521  000776  6E1C               	movwf	(_I2C1Registers+27)^0,c
   522                           
   523                           ;SensorBoard.c: 601:     I2C1Registers[28] = 'X';
   524  000778  0E58               	movlw	88
   525  00077A  6E1D               	movwf	(_I2C1Registers+28)^0,c
   526  00077C  0012               	return		;funcret
   527  00077E                     __end_of_StartStatus:
   528                           	callstack 0
   529                           
   530 ;; *************** function _TMR2Config *****************
   531 ;; Defined at:
   532 ;;		line 193 in file "SensorBoard.c"
   533 ;; Parameters:    Size  Location     Type
   534 ;;		None
   535 ;; Auto vars:     Size  Location     Type
   536 ;;		None
   537 ;; Return value:  Size  Location     Type
   538 ;;                  1    wreg      void 
   539 ;; Registers used:
   540 ;;		wreg, status,2
   541 ;; Tracked objects:
   542 ;;		On entry : 0/0
   543 ;;		On exit  : 0/0
   544 ;;		Unchanged: 0/0
   545 ;; Data sizes:     COMRAM   BANK0   BANK1   BANK2   BANK3   BANK4   BANK5   BANK6   BANK7   BANK8   BANK9  BANK10  BANK1
      +1  BANK12  BANK13  BANK14
   546 ;;      Params:         0       0       0       0       0       0       0       0       0       0       0       0       
      +0       0       0       0
   547 ;;      Locals:         0       0       0       0       0       0       0       0       0       0       0       0       
      +0       0       0       0
   548 ;;      Temps:          0       0       0       0       0       0       0       0       0       0       0       0       
      +0       0       0       0
   549 ;;      Totals:         0       0       0       0       0       0       0       0       0       0       0       0       
      +0       0       0       0
   550 ;;Total ram usage:        0 bytes
   551 ;; Hardware stack levels used: 1
   552 ;; Hardware stack levels required when called: 2
   553 ;; This function calls:
   554 ;;		Nothing
   555 ;; This function is called by:
   556 ;;		_StartStatus
   557 ;; This function uses a non-reentrant model
   558 ;;
   559                           
   560                           	psect	text2
   561  000996                     __ptext2:
   562                           	callstack 0
   563  000996                     _TMR2Config:
   564                           	callstack 27
   565  000996                     
   566                           ;SensorBoard.c: 196:     T2CLKbits.T2CS = 0b0001;
   567  000996  50BF               	movf	191,w,c	;volatile
   568  000998  0BF0               	andlw	-16
   569  00099A  0901               	iorlw	1
   570  00099C  6EBF               	movwf	191,c	;volatile
   571                           
   572                           ;SensorBoard.c: 197:     T2CONbits.T2CKPS = 0b111;
   573  00099E  0E70               	movlw	112
   574  0009A0  12BD               	iorwf	189,f,c	;volatile
   575                           
   576                           ;SensorBoard.c: 198:     T2CONbits.T2OUTPS = 0b1111;
   577  0009A2  0E0F               	movlw	15
   578  0009A4  12BD               	iorwf	189,f,c	;volatile
   579                           
   580                           ;SensorBoard.c: 199:     T2PR = 250;
   581  0009A6  0EFA               	movlw	250
   582  0009A8  6EBC               	movwf	188,c	;volatile
   583                           
   584                           ;SensorBoard.c: 201:     T2HLT = 0x00;
   585  0009AA  0E00               	movlw	0
   586  0009AC  6EBE               	movwf	190,c	;volatile
   587  0009AE                     
   588                           ;SensorBoard.c: 202:     T2RST = 0xFF;
   589  0009AE  68C0               	setf	192,c	;volatile
   590  0009B0                     
   591                           ;SensorBoard.c: 204:     T2CONbits.T2ON = 1;
   592  0009B0  8EBD               	bsf	189,7,c	;volatile
   593  0009B2                     
   594                           ;SensorBoard.c: 206:     PIR4bits.TMR2IF = 0;
   595  0009B2  010E               	movlb	14	; () banked
   596  0009B4  93CE               	bcf	206,1,b	;volatile
   597  0009B6                     
   598                           ; BSR set to: 14
   599                           ;SensorBoard.c: 207:     PIE4bits.TMR2IE = 1;
   600  0009B6  83C6               	bsf	198,1,b	;volatile
   601  0009B8                     
   602                           ; BSR set to: 14
   603  0009B8  0012               	return		;funcret
   604  0009BA                     __end_of_TMR2Config:
   605                           	callstack 0
   606                           
   607 ;; *************** function _SSP2Config *****************
   608 ;; Defined at:
   609 ;;		line 267 in file "SensorBoard.c"
   610 ;; Parameters:    Size  Location     Type
   611 ;;		None
   612 ;; Auto vars:     Size  Location     Type
   613 ;;		None
   614 ;; Return value:  Size  Location     Type
   615 ;;                  1    wreg      void 
   616 ;; Registers used:
   617 ;;		wreg, status,2
   618 ;; Tracked objects:
   619 ;;		On entry : 0/0
   620 ;;		On exit  : 0/0
   621 ;;		Unchanged: 0/0
   622 ;; Data sizes:     COMRAM   BANK0   BANK1   BANK2   BANK3   BANK4   BANK5   BANK6   BANK7   BANK8   BANK9  BANK10  BANK1
      +1  BANK12  BANK13  BANK14
   623 ;;      Params:         0       0       0       0       0       0       0       0       0       0       0       0       
      +0       0       0       0
   624 ;;      Locals:         0       0       0       0       0       0       0       0       0       0       0       0       
      +0       0       0       0
   625 ;;      Temps:          0       0       0       0       0       0       0       0       0       0       0       0       
      +0       0       0       0
   626 ;;      Totals:         0       0       0       0       0       0       0       0       0       0       0       0       
      +0       0       0       0
   627 ;;Total ram usage:        0 bytes
   628 ;; Hardware stack levels used: 1
   629 ;; Hardware stack levels required when called: 2
   630 ;; This function calls:
   631 ;;		Nothing
   632 ;; This function is called by:
   633 ;;		_StartStatus
   634 ;; This function uses a non-reentrant model
   635 ;;
   636                           
   637                           	psect	text3
   638  0009F2                     __ptext3:
   639                           	callstack 0
   640  0009F2                     _SSP2Config:
   641                           	callstack 27
   642  0009F2                     
   643                           ;SensorBoard.c: 270:     SSP2ADD = 39;
   644  0009F2  0E27               	movlw	39
   645  0009F4  010E               	movlb	14	; () banked
   646  0009F6  6F93               	movwf	147,b	;volatile
   647                           
   648                           ;SensorBoard.c: 271:     SSP2CON1bits.SSPM = 0b1000;
   649  0009F8  5196               	movf	150,w,b	;volatile
   650  0009FA  0BF0               	andlw	-16
   651  0009FC  0908               	iorlw	8
   652  0009FE  6F96               	movwf	150,b	;volatile
   653  000A00                     
   654                           ; BSR set to: 14
   655                           ;SensorBoard.c: 272:     SSP2STATbits.SMP = 0;
   656  000A00  9F95               	bcf	149,7,b	;volatile
   657  000A02                     
   658                           ; BSR set to: 14
   659                           ;SensorBoard.c: 273:     SSP2STATbits.CKE = 0;
   660  000A02  9D95               	bcf	149,6,b	;volatile
   661  000A04                     
   662                           ; BSR set to: 14
   663                           ;SensorBoard.c: 275:     SSP2CON1bits.SSPEN = 1;
   664  000A04  8B96               	bsf	150,5,b	;volatile
   665  000A06                     
   666                           ; BSR set to: 14
   667  000A06  0012               	return		;funcret
   668  000A08                     __end_of_SSP2Config:
   669                           	callstack 0
   670                           
   671 ;; *************** function _SSP1Config *****************
   672 ;; Defined at:
   673 ;;		line 239 in file "SensorBoard.c"
   674 ;; Parameters:    Size  Location     Type
   675 ;;		None
   676 ;; Auto vars:     Size  Location     Type
   677 ;;  slaveAdd        1    4[COMRAM] unsigned char 
   678 ;; Return value:  Size  Location     Type
   679 ;;                  1    wreg      void 
   680 ;; Registers used:
   681 ;;		wreg, status,2, status,0
   682 ;; Tracked objects:
   683 ;;		On entry : 0/0
   684 ;;		On exit  : 0/0
   685 ;;		Unchanged: 0/0
   686 ;; Data sizes:     COMRAM   BANK0   BANK1   BANK2   BANK3   BANK4   BANK5   BANK6   BANK7   BANK8   BANK9  BANK10  BANK1
      +1  BANK12  BANK13  BANK14
   687 ;;      Params:         0       0       0       0       0       0       0       0       0       0       0       0       
      +0       0       0       0
   688 ;;      Locals:         1       0       0       0       0       0       0       0       0       0       0       0       
      +0       0       0       0
   689 ;;      Temps:          0       0       0       0       0       0       0       0       0       0       0       0       
      +0       0       0       0
   690 ;;      Totals:         1       0       0       0       0       0       0       0       0       0       0       0       
      +0       0       0       0
   691 ;;Total ram usage:        1 bytes
   692 ;; Hardware stack levels used: 1
   693 ;; Hardware stack levels required when called: 2
   694 ;; This function calls:
   695 ;;		Nothing
   696 ;; This function is called by:
   697 ;;		_StartStatus
   698 ;; This function uses a non-reentrant model
   699 ;;
   700                           
   701                           	psect	text4
   702  000818                     __ptext4:
   703                           	callstack 0
   704  000818                     _SSP1Config:
   705                           	callstack 27
   706  000818                     
   707                           ;SensorBoard.c: 245:     slaveAdd = (~(PORTB << 1)) & 0b01111110;
   708  000818  508E               	movf	142,w,c	;volatile
   709  00081A  248E               	addwf	142,w,c	;volatile
   710  00081C  0AFF               	xorlw	255
   711  00081E  0B7E               	andlw	126
   712  000820  6E33               	movwf	SSP1Config@slaveAdd^0,c
   713  000822                     
   714                           ;SensorBoard.c: 246:     if(slaveAdd < 0x10) {SSP1ADD = 0x10;} else {SSP1ADD = slaveAdd;
      +                          }
   715  000822  0E10               	movlw	16
   716  000824  6033               	cpfslt	SSP1Config@slaveAdd^0,c
   717  000826  EF17  F004         	goto	u211
   718  00082A  EF19  F004         	goto	u210
   719  00082E                     u211:
   720  00082E  EF1D  F004         	goto	l174
   721  000832                     u210:
   722  000832  0E10               	movlw	16
   723  000834  6E93               	movwf	147,c	;volatile
   724  000836  EF1F  F004         	goto	l175
   725  00083A                     l174:
   726  00083A  C033  FF93         	movff	SSP1Config@slaveAdd,3987	;volatile
   727  00083E                     l175:
   728                           
   729                           ;SensorBoard.c: 247:     SSP1MSK = 0xFF;
   730  00083E  6894               	setf	148,c	;volatile
   731                           
   732                           ;SensorBoard.c: 249:     SSP1CON1bits.CKP = 1;
   733  000840  8896               	bsf	150,4,c	;volatile
   734  000842                     
   735                           ;SensorBoard.c: 250:     SSP1CON1bits.SSPM = 0b0110;
   736  000842  5096               	movf	150,w,c	;volatile
   737  000844  0BF0               	andlw	-16
   738  000846  0906               	iorlw	6
   739  000848  6E96               	movwf	150,c	;volatile
   740  00084A                     
   741                           ;SensorBoard.c: 251:     SSP1CON2bits.GCEN = 0;
   742  00084A  9E97               	bcf	151,7,c	;volatile
   743  00084C                     
   744                           ;SensorBoard.c: 253:     SSP1STATbits.SMP = 0;
   745  00084C  9E95               	bcf	149,7,c	;volatile
   746  00084E                     
   747                           ;SensorBoard.c: 254:     SSP1STATbits.CKE = 0;
   748  00084E  9C95               	bcf	149,6,c	;volatile
   749  000850                     
   750                           ;SensorBoard.c: 256:     SSP1MSK = 0xFF;
   751  000850  6894               	setf	148,c	;volatile
   752  000852                     
   753                           ;SensorBoard.c: 258:     SSP1CON3bits.PCIE = 1;
   754  000852  8C98               	bsf	152,6,c	;volatile
   755  000854                     
   756                           ;SensorBoard.c: 259:     SSP1CON3bits.SCIE = 0;
   757  000854  9A98               	bcf	152,5,c	;volatile
   758  000856                     
   759                           ;SensorBoard.c: 261:     PIR3bits.SSP1IF = 0;
   760  000856  010E               	movlb	14	; () banked
   761  000858  91CD               	bcf	205,0,b	;volatile
   762  00085A                     
   763                           ; BSR set to: 14
   764                           ;SensorBoard.c: 262:     PIE3bits.SSP1IE = 1;
   765  00085A  81C5               	bsf	197,0,b	;volatile
   766  00085C                     
   767                           ; BSR set to: 14
   768                           ;SensorBoard.c: 264:     SSP1CON1bits.SSPEN = 1;
   769  00085C  8A96               	bsf	150,5,c	;volatile
   770  00085E                     
   771                           ; BSR set to: 14
   772  00085E  0012               	return		;funcret
   773  000860                     __end_of_SSP1Config:
   774                           	callstack 0
   775                           
   776 ;; *************** function _IOCConfig *****************
   777 ;; Defined at:
   778 ;;		line 184 in file "SensorBoard.c"
   779 ;; Parameters:    Size  Location     Type
   780 ;;		None
   781 ;; Auto vars:     Size  Location     Type
   782 ;;		None
   783 ;; Return value:  Size  Location     Type
   784 ;;                  1    wreg      void 
   785 ;; Registers used:
   786 ;;		wreg, status,2
   787 ;; Tracked objects:
   788 ;;		On entry : 0/0
   789 ;;		On exit  : 0/0
   790 ;;		Unchanged: 0/0
   791 ;; Data sizes:     COMRAM   BANK0   BANK1   BANK2   BANK3   BANK4   BANK5   BANK6   BANK7   BANK8   BANK9  BANK10  BANK1
      +1  BANK12  BANK13  BANK14
   792 ;;      Params:         0       0       0       0       0       0       0       0       0       0       0       0       
      +0       0       0       0
   793 ;;      Locals:         0       0       0       0       0       0       0       0       0       0       0       0       
      +0       0       0       0
   794 ;;      Temps:          0       0       0       0       0       0       0       0       0       0       0       0       
      +0       0       0       0
   795 ;;      Totals:         0       0       0       0       0       0       0       0       0       0       0       0       
      +0       0       0       0
   796 ;;Total ram usage:        0 bytes
   797 ;; Hardware stack levels used: 1
   798 ;; Hardware stack levels required when called: 2
   799 ;; This function calls:
   800 ;;		Nothing
   801 ;; This function is called by:
   802 ;;		_StartStatus
   803 ;; This function uses a non-reentrant model
   804 ;;
   805                           
   806                           	psect	text5
   807  000A1C                     __ptext5:
   808                           	callstack 0
   809  000A1C                     _IOCConfig:
   810                           	callstack 27
   811  000A1C                     
   812                           ;SensorBoard.c: 186:     IOCCP = 0b00110000;
   813  000A1C  0E30               	movlw	48
   814  000A1E  010F               	movlb	15	; () banked
   815  000A20  6F1C               	movwf	28,b	;volatile
   816                           
   817                           ;SensorBoard.c: 187:     IOCCN = 0b00000000;
   818  000A22  0E00               	movlw	0
   819  000A24  6F1B               	movwf	27,b	;volatile
   820  000A26                     
   821                           ; BSR set to: 15
   822                           ;SensorBoard.c: 189:     PIR0bits.IOCIF = 0;
   823  000A26  010E               	movlb	14	; () banked
   824  000A28  99CA               	bcf	202,4,b	;volatile
   825  000A2A                     
   826                           ; BSR set to: 14
   827                           ;SensorBoard.c: 190:     PIE0bits.IOCIE = 1;
   828  000A2A  89C2               	bsf	194,4,b	;volatile
   829  000A2C                     
   830                           ; BSR set to: 14
   831  000A2C  0012               	return		;funcret
   832  000A2E                     __end_of_IOCConfig:
   833                           	callstack 0
   834                           
   835 ;; *************** function _SearchProcess *****************
   836 ;; Defined at:
   837 ;;		line 511 in file "SensorBoard.c"
   838 ;; Parameters:    Size  Location     Type
   839 ;;		None
   840 ;; Auto vars:     Size  Location     Type
   841 ;;		None
   842 ;; Return value:  Size  Location     Type
   843 ;;                  1    wreg      void 
   844 ;; Registers used:
   845 ;;		wreg, status,2, status,0, cstack
   846 ;; Tracked objects:
   847 ;;		On entry : 0/0
   848 ;;		On exit  : 0/0
   849 ;;		Unchanged: 0/0
   850 ;; Data sizes:     COMRAM   BANK0   BANK1   BANK2   BANK3   BANK4   BANK5   BANK6   BANK7   BANK8   BANK9  BANK10  BANK1
      +1  BANK12  BANK13  BANK14
   851 ;;      Params:         0       0       0       0       0       0       0       0       0       0       0       0       
      +0       0       0       0
   852 ;;      Locals:         0       0       0       0       0       0       0       0       0       0       0       0       
      +0       0       0       0
   853 ;;      Temps:          0       0       0       0       0       0       0       0       0       0       0       0       
      +0       0       0       0
   854 ;;      Totals:         0       0       0       0       0       0       0       0       0       0       0       0       
      +0       0       0       0
   855 ;;Total ram usage:        0 bytes
   856 ;; Hardware stack levels used: 1
   857 ;; Hardware stack levels required when called: 4
   858 ;; This function calls:
   859 ;;		_I2C2Scan
   860 ;;		_SaveSensor
   861 ;; This function is called by:
   862 ;;		_main
   863 ;; This function uses a non-reentrant model
   864 ;;
   865                           
   866                           	psect	text6
   867  00089E                     __ptext6:
   868                           	callstack 0
   869  00089E                     _SearchProcess:
   870                           	callstack 26
   871  00089E                     
   872                           ;SensorBoard.c: 514:     {;SensorBoard.c: 515:         if(I2C2Scan() == 0x00) {LATA = 0x
      +                          EE; break;}
   873  00089E  EC6D  F004         	call	_I2C2Scan	;wreg free
   874  0008A2  0900               	iorlw	0
   875  0008A4  A4D8               	btfss	status,2,c
   876  0008A6  EF57  F004         	goto	u1131
   877  0008AA  EF59  F004         	goto	u1130
   878  0008AE                     u1131:
   879  0008AE  EF5D  F004         	goto	l1867
   880  0008B2                     u1130:
   881  0008B2  0EEE               	movlw	238
   882  0008B4  6E83               	movwf	131,c	;volatile
   883  0008B6  EF6C  F004         	goto	l315
   884  0008BA                     l1867:
   885                           
   886                           ;SensorBoard.c: 516:         if(SaveSensor() == 0x00) {LATA = 0xFF; break;} else {LATA =
      +                           sensorEEADR;}
   887  0008BA  EC39  F000         	call	_SaveSensor	;wreg free
   888  0008BE  0900               	iorlw	0
   889  0008C0  A4D8               	btfss	status,2,c
   890  0008C2  EF65  F004         	goto	u1141
   891  0008C6  EF67  F004         	goto	u1140
   892  0008CA                     u1141:
   893  0008CA  EF6A  F004         	goto	l313
   894  0008CE                     u1140:
   895  0008CE  6883               	setf	131,c	;volatile
   896  0008D0  EF6C  F004         	goto	l315
   897  0008D4                     l313:
   898  0008D4  C02C  FF83         	movff	_sensorEEADR,3971	;volatile
   899  0008D8                     l315:
   900  0008D8  0012               	return		;funcret
   901  0008DA                     __end_of_SearchProcess:
   902                           	callstack 0
   903                           
   904 ;; *************** function _SaveSensor *****************
   905 ;; Defined at:
   906 ;;		line 428 in file "SensorBoard.c"
   907 ;; Parameters:    Size  Location     Type
   908 ;;		None
   909 ;; Auto vars:     Size  Location     Type
   910 ;;		None
   911 ;; Return value:  Size  Location     Type
   912 ;;                  1    wreg      unsigned char 
   913 ;; Registers used:
   914 ;;		wreg, status,2, status,0, cstack
   915 ;; Tracked objects:
   916 ;;		On entry : 0/0
   917 ;;		On exit  : 0/0
   918 ;;		Unchanged: 0/0
   919 ;; Data sizes:     COMRAM   BANK0   BANK1   BANK2   BANK3   BANK4   BANK5   BANK6   BANK7   BANK8   BANK9  BANK10  BANK1
      +1  BANK12  BANK13  BANK14
   920 ;;      Params:         0       0       0       0       0       0       0       0       0       0       0       0       
      +0       0       0       0
   921 ;;      Locals:         0       0       0       0       0       0       0       0       0       0       0       0       
      +0       0       0       0
   922 ;;      Temps:          0       0       0       0       0       0       0       0       0       0       0       0       
      +0       0       0       0
   923 ;;      Totals:         0       0       0       0       0       0       0       0       0       0       0       0       
      +0       0       0       0
   924 ;;Total ram usage:        0 bytes
   925 ;; Hardware stack levels used: 1
   926 ;; Hardware stack levels required when called: 3
   927 ;; This function calls:
   928 ;;		_I2C2RequestData
   929 ;;		_I2C2Stop
   930 ;;		_I2C2TransmitAddress
   931 ;;		_I2C2TransmitData
   932 ;;		_ReadEEPROM
   933 ;;		_WriteToEEPROM
   934 ;; This function is called by:
   935 ;;		_SearchProcess
   936 ;; This function uses a non-reentrant model
   937 ;;
   938                           
   939                           	psect	text7
   940  000072                     __ptext7:
   941                           	callstack 0
   942  000072                     _SaveSensor:
   943                           	callstack 26
   944  000072                     
   945                           ;SensorBoard.c: 431:     sensorEEADR = 0x10;
   946  000072  0E10               	movlw	16
   947  000074  6E2C               	movwf	_sensorEEADR^0,c
   948                           
   949                           ;SensorBoard.c: 432:     while (ReadEEPROM(sensorEEADR) != 0x00)
   950  000076  EF4A  F000         	goto	l1753
   951  00007A                     l1747:
   952                           
   953                           ;SensorBoard.c: 433:     {;SensorBoard.c: 434:         sensorEEADR += 2;
   954  00007A  0E02               	movlw	2
   955  00007C  262C               	addwf	_sensorEEADR^0,f,c
   956                           
   957                           ;SensorBoard.c: 435:         if(sensorEEADR >= 0x20) {return 0x00;}
   958  00007E  0E1F               	movlw	31
   959  000080  642C               	cpfsgt	_sensorEEADR^0,c
   960  000082  EF45  F000         	goto	u921
   961  000086  EF47  F000         	goto	u920
   962  00008A                     u921:
   963  00008A  EF4A  F000         	goto	l1753
   964  00008E                     u920:
   965  00008E                     l1749:
   966  00008E  0E00               	movlw	0
   967  000090  EF61  F001         	goto	l275
   968  000094                     l1753:
   969                           
   970                           ;SensorBoard.c: 432:     while (ReadEEPROM(sensorEEADR) != 0x00)
   971  000094  502C               	movf	_sensorEEADR^0,w,c
   972  000096  EC17  F005         	call	_ReadEEPROM
   973  00009A  0900               	iorlw	0
   974  00009C  A4D8               	btfss	status,2,c
   975  00009E  EF53  F000         	goto	u931
   976  0000A2  EF55  F000         	goto	u930
   977  0000A6                     u931:
   978  0000A6  EF3D  F000         	goto	l1747
   979  0000AA                     u930:
   980  0000AA                     
   981                           ;SensorBoard.c: 439:     if(I2C2TransmitAddress(scanAddress) == 0x00) {return 0x00;}
   982  0000AA  502D               	movf	_scanAddress^0,w,c
   983  0000AC  ECBF  F003         	call	_I2C2TransmitAddress
   984  0000B0  0900               	iorlw	0
   985  0000B2  A4D8               	btfss	status,2,c
   986  0000B4  EF5E  F000         	goto	u941
   987  0000B8  EF60  F000         	goto	u940
   988  0000BC                     u941:
   989  0000BC  EF62  F000         	goto	l1761
   990  0000C0                     u940:
   991  0000C0  EF47  F000         	goto	l1749
   992  0000C4                     l1761:
   993                           
   994                           ;SensorBoard.c: 440:     if(I2C2TransmitData(0x3C) == 0x00) {return 0x00;}
   995  0000C4  0E3C               	movlw	60
   996  0000C6  EC30  F004         	call	_I2C2TransmitData
   997  0000CA  0900               	iorlw	0
   998  0000CC  A4D8               	btfss	status,2,c
   999  0000CE  EF6B  F000         	goto	u951
  1000  0000D2  EF6D  F000         	goto	u950
  1001  0000D6                     u951:
  1002  0000D6  EF6F  F000         	goto	l1767
  1003  0000DA                     u950:
  1004  0000DA  EF47  F000         	goto	l1749
  1005  0000DE                     l1767:
  1006                           
  1007                           ;SensorBoard.c: 441:     I2C2Stop();
  1008  0000DE  EC04  F005         	call	_I2C2Stop	;wreg free
  1009  0000E2                     
  1010                           ;SensorBoard.c: 444:     if(I2C2RequestData(1, scanAddress | 0x01) == 0x00) {return 0x00
      +                          ;}
  1011  0000E2  502D               	movf	_scanAddress^0,w,c
  1012  0000E4  0901               	iorlw	1
  1013  0000E6  6E33               	movwf	I2C2RequestData@readAddr^0,c
  1014  0000E8  0E01               	movlw	1
  1015  0000EA  EC19  F002         	call	_I2C2RequestData
  1016  0000EE  0900               	iorlw	0
  1017  0000F0  A4D8               	btfss	status,2,c
  1018  0000F2  EF7D  F000         	goto	u961
  1019  0000F6  EF7F  F000         	goto	u960
  1020  0000FA                     u961:
  1021  0000FA  EF81  F000         	goto	l279
  1022  0000FE                     u960:
  1023  0000FE  EF47  F000         	goto	l1749
  1024  000102                     l279:
  1025                           
  1026                           ;SensorBoard.c: 445:     ID[0] = I2C2Data;
  1027  000102  C025  F01E         	movff	_I2C2Data,_ID
  1028  000106                     
  1029                           ;SensorBoard.c: 446:     if(I2C2RequestData(2, 0x00) == 0x00) {return 0x00;}
  1030  000106  0E00               	movlw	0
  1031  000108  6E33               	movwf	I2C2RequestData@readAddr^0,c
  1032  00010A  0E02               	movlw	2
  1033  00010C  EC19  F002         	call	_I2C2RequestData
  1034  000110  0900               	iorlw	0
  1035  000112  A4D8               	btfss	status,2,c
  1036  000114  EF8E  F000         	goto	u971
  1037  000118  EF90  F000         	goto	u970
  1038  00011C                     u971:
  1039  00011C  EF92  F000         	goto	l280
  1040  000120                     u970:
  1041  000120  EF47  F000         	goto	l1749
  1042  000124                     l280:
  1043                           
  1044                           ;SensorBoard.c: 447:     ID[1] = I2C2Data;
  1045  000124  C025  F01F         	movff	_I2C2Data,_ID+1
  1046  000128                     
  1047                           ;SensorBoard.c: 448:     if(I2C2RequestData(2, 0x00) == 0x00) {return 0x00;}
  1048  000128  0E00               	movlw	0
  1049  00012A  6E33               	movwf	I2C2RequestData@readAddr^0,c
  1050  00012C  0E02               	movlw	2
  1051  00012E  EC19  F002         	call	_I2C2RequestData
  1052  000132  0900               	iorlw	0
  1053  000134  A4D8               	btfss	status,2,c
  1054  000136  EF9F  F000         	goto	u981
  1055  00013A  EFA1  F000         	goto	u980
  1056  00013E                     u981:
  1057  00013E  EFA3  F000         	goto	l281
  1058  000142                     u980:
  1059  000142  EF47  F000         	goto	l1749
  1060  000146                     l281:
  1061                           
  1062                           ;SensorBoard.c: 449:     ID[2] = I2C2Data;
  1063  000146  C025  F020         	movff	_I2C2Data,_ID+2
  1064  00014A                     
  1065                           ;SensorBoard.c: 450:     if(I2C2RequestData(3, 0x00) == 0x00) {return 0x00;}
  1066  00014A  0E00               	movlw	0
  1067  00014C  6E33               	movwf	I2C2RequestData@readAddr^0,c
  1068  00014E  0E03               	movlw	3
  1069  000150  EC19  F002         	call	_I2C2RequestData
  1070  000154  0900               	iorlw	0
  1071  000156  A4D8               	btfss	status,2,c
  1072  000158  EFB0  F000         	goto	u991
  1073  00015C  EFB2  F000         	goto	u990
  1074  000160                     u991:
  1075  000160  EFB4  F000         	goto	l282
  1076  000164                     u990:
  1077  000164  EF47  F000         	goto	l1749
  1078  000168                     l282:
  1079                           
  1080                           ;SensorBoard.c: 451:     ID[3] = I2C2Data;
  1081  000168  C025  F021         	movff	_I2C2Data,_ID+3
  1082  00016C                     
  1083                           ;SensorBoard.c: 454:     if(I2C2TransmitAddress(scanAddress) == 0x00) {return 0x00;}
  1084  00016C  502D               	movf	_scanAddress^0,w,c
  1085  00016E  ECBF  F003         	call	_I2C2TransmitAddress
  1086  000172  0900               	iorlw	0
  1087  000174  A4D8               	btfss	status,2,c
  1088  000176  EFBF  F000         	goto	u1001
  1089  00017A  EFC1  F000         	goto	u1000
  1090  00017E                     u1001:
  1091  00017E  EFC3  F000         	goto	l1799
  1092  000182                     u1000:
  1093  000182  EF47  F000         	goto	l1749
  1094  000186                     l1799:
  1095                           
  1096                           ;SensorBoard.c: 455:     if(I2C2TransmitData(0x22) == 0x00) {return 0x00;}
  1097  000186  0E22               	movlw	34
  1098  000188  EC30  F004         	call	_I2C2TransmitData
  1099  00018C  0900               	iorlw	0
  1100  00018E  A4D8               	btfss	status,2,c
  1101  000190  EFCC  F000         	goto	u1011
  1102  000194  EFCE  F000         	goto	u1010
  1103  000198                     u1011:
  1104  000198  EFD0  F000         	goto	l1805
  1105  00019C                     u1010:
  1106  00019C  EF47  F000         	goto	l1749
  1107  0001A0                     l1805:
  1108                           
  1109                           ;SensorBoard.c: 456:     if(I2C2TransmitData(sensorEEADR >> 1) == 0x00) {return 0x00;}
  1110  0001A0  90D8               	bcf	status,0,c
  1111  0001A2  302C               	rrcf	_sensorEEADR^0,w,c
  1112  0001A4  EC30  F004         	call	_I2C2TransmitData
  1113  0001A8  0900               	iorlw	0
  1114  0001AA  A4D8               	btfss	status,2,c
  1115  0001AC  EFDA  F000         	goto	u1021
  1116  0001B0  EFDC  F000         	goto	u1020
  1117  0001B4                     u1021:
  1118  0001B4  EFDE  F000         	goto	l1811
  1119  0001B8                     u1020:
  1120  0001B8  EF47  F000         	goto	l1749
  1121  0001BC                     l1811:
  1122                           
  1123                           ;SensorBoard.c: 457:     I2C2Stop();
  1124  0001BC  EC04  F005         	call	_I2C2Stop	;wreg free
  1125  0001C0                     
  1126                           ;SensorBoard.c: 462:     if(ID[0] == 'L' && ID[1] == 'U' && ID[2] == 'N' && ID[3] == 'A'
      +                          )
  1127  0001C0  0E4C               	movlw	76
  1128  0001C2  181E               	xorwf	_ID^0,w,c
  1129  0001C4  A4D8               	btfss	status,2,c
  1130  0001C6  EFE7  F000         	goto	u1031
  1131  0001CA  EFE9  F000         	goto	u1030
  1132  0001CE                     u1031:
  1133  0001CE  EF3A  F001         	goto	l1845
  1134  0001D2                     u1030:
  1135  0001D2  0E55               	movlw	85
  1136  0001D4  181F               	xorwf	(_ID+1)^0,w,c
  1137  0001D6  A4D8               	btfss	status,2,c
  1138  0001D8  EFF0  F000         	goto	u1041
  1139  0001DC  EFF2  F000         	goto	u1040
  1140  0001E0                     u1041:
  1141  0001E0  EF3A  F001         	goto	l1845
  1142  0001E4                     u1040:
  1143  0001E4  0E4E               	movlw	78
  1144  0001E6  1820               	xorwf	(_ID+2)^0,w,c
  1145  0001E8  A4D8               	btfss	status,2,c
  1146  0001EA  EFF9  F000         	goto	u1051
  1147  0001EE  EFFB  F000         	goto	u1050
  1148  0001F2                     u1051:
  1149  0001F2  EF3A  F001         	goto	l1845
  1150  0001F6                     u1050:
  1151  0001F6  0E41               	movlw	65
  1152  0001F8  1821               	xorwf	(_ID+3)^0,w,c
  1153  0001FA  A4D8               	btfss	status,2,c
  1154  0001FC  EF02  F001         	goto	u1061
  1155  000200  EF04  F001         	goto	u1060
  1156  000204                     u1061:
  1157  000204  EF3A  F001         	goto	l1845
  1158  000208                     u1060:
  1159  000208                     
  1160                           ;SensorBoard.c: 463:     {;SensorBoard.c: 465:         WriteToEEPROM(sensorEEADR, 'L');
  1161  000208  0E4C               	movlw	76
  1162  00020A  6E33               	movwf	WriteToEEPROM@val^0,c
  1163  00020C  502C               	movf	_sensorEEADR^0,w,c
  1164  00020E  EC8B  F004         	call	_WriteToEEPROM
  1165  000212                     
  1166                           ;SensorBoard.c: 466:         WriteToEEPROM(sensorEEADR | 0x01, 1);
  1167  000212  0E01               	movlw	1
  1168  000214  6E33               	movwf	WriteToEEPROM@val^0,c
  1169  000216  502C               	movf	_sensorEEADR^0,w,c
  1170  000218  0901               	iorlw	1
  1171  00021A  EC8B  F004         	call	_WriteToEEPROM
  1172  00021E                     
  1173                           ;SensorBoard.c: 469:         if(I2C2TransmitAddress(sensorEEADR) == 0x00) {return 0x00;}
  1174  00021E  502C               	movf	_sensorEEADR^0,w,c
  1175  000220  ECBF  F003         	call	_I2C2TransmitAddress
  1176  000224  0900               	iorlw	0
  1177  000226  A4D8               	btfss	status,2,c
  1178  000228  EF18  F001         	goto	u1071
  1179  00022C  EF1A  F001         	goto	u1070
  1180  000230                     u1071:
  1181  000230  EF1C  F001         	goto	l1831
  1182  000234                     u1070:
  1183  000234  EF47  F000         	goto	l1749
  1184  000238                     l1831:
  1185                           
  1186                           ;SensorBoard.c: 470:         if(I2C2TransmitData(0x20) == 0x00) {return 0x00;}
  1187  000238  0E20               	movlw	32
  1188  00023A  EC30  F004         	call	_I2C2TransmitData
  1189  00023E  0900               	iorlw	0
  1190  000240  A4D8               	btfss	status,2,c
  1191  000242  EF25  F001         	goto	u1081
  1192  000246  EF27  F001         	goto	u1080
  1193  00024A                     u1081:
  1194  00024A  EF29  F001         	goto	l1837
  1195  00024E                     u1080:
  1196  00024E  EF47  F000         	goto	l1749
  1197  000252                     l1837:
  1198                           
  1199                           ;SensorBoard.c: 471:         if(I2C2TransmitData(0x01) == 0x00) {return 0x00;}
  1200  000252  0E01               	movlw	1
  1201  000254  EC30  F004         	call	_I2C2TransmitData
  1202  000258  0900               	iorlw	0
  1203  00025A  A4D8               	btfss	status,2,c
  1204  00025C  EF32  F001         	goto	u1091
  1205  000260  EF34  F001         	goto	u1090
  1206  000264                     u1091:
  1207  000264  EF36  F001         	goto	l1843
  1208  000268                     u1090:
  1209  000268  EF47  F000         	goto	l1749
  1210  00026C                     l1843:
  1211                           
  1212                           ;SensorBoard.c: 472:         I2C2Stop();
  1213  00026C  EC04  F005         	call	_I2C2Stop	;wreg free
  1214                           
  1215                           ;SensorBoard.c: 473:     }
  1216  000270  EF60  F001         	goto	l1859
  1217  000274                     l1845:
  1218  000274  0E49               	movlw	73
  1219  000276  181E               	xorwf	_ID^0,w,c
  1220  000278  A4D8               	btfss	status,2,c
  1221  00027A  EF41  F001         	goto	u1101
  1222  00027E  EF43  F001         	goto	u1100
  1223  000282                     u1101:
  1224  000282  EF47  F000         	goto	l1749
  1225  000286                     u1100:
  1226  000286  0E4E               	movlw	78
  1227  000288  181F               	xorwf	(_ID+1)^0,w,c
  1228  00028A  A4D8               	btfss	status,2,c
  1229  00028C  EF4A  F001         	goto	u1111
  1230  000290  EF4C  F001         	goto	u1110
  1231  000294                     u1111:
  1232  000294  EF47  F000         	goto	l1749
  1233  000298                     u1110:
  1234  000298  0E46               	movlw	70
  1235  00029A  1820               	xorwf	(_ID+2)^0,w,c
  1236  00029C  A4D8               	btfss	status,2,c
  1237  00029E  EF53  F001         	goto	u1121
  1238  0002A2  EF55  F001         	goto	u1120
  1239  0002A6                     u1121:
  1240  0002A6  EF47  F000         	goto	l1749
  1241  0002AA                     u1120:
  1242  0002AA                     
  1243                           ;SensorBoard.c: 475:     {;SensorBoard.c: 477:         WriteToEEPROM(sensorEEADR, 'I');
  1244  0002AA  0E49               	movlw	73
  1245  0002AC  6E33               	movwf	WriteToEEPROM@val^0,c
  1246  0002AE  502C               	movf	_sensorEEADR^0,w,c
  1247  0002B0  EC8B  F004         	call	_WriteToEEPROM
  1248  0002B4                     
  1249                           ;SensorBoard.c: 478:         WriteToEEPROM(sensorEEADR | 0x01, ID[3]);
  1250  0002B4  C021  F033         	movff	_ID+3,WriteToEEPROM@val
  1251  0002B8  502C               	movf	_sensorEEADR^0,w,c
  1252  0002BA  0901               	iorlw	1
  1253  0002BC  EC8B  F004         	call	_WriteToEEPROM
  1254  0002C0                     l1859:
  1255                           
  1256                           ;SensorBoard.c: 482:     return 0xFF;
  1257  0002C0  0EFF               	movlw	255
  1258  0002C2                     l275:
  1259  0002C2  0012               	return		;funcret
  1260  0002C4                     __end_of_SaveSensor:
  1261                           	callstack 0
  1262                           
  1263 ;; *************** function _I2C2Scan *****************
  1264 ;; Defined at:
  1265 ;;		line 415 in file "SensorBoard.c"
  1266 ;; Parameters:    Size  Location     Type
  1267 ;;		None
  1268 ;; Auto vars:     Size  Location     Type
  1269 ;;		None
  1270 ;; Return value:  Size  Location     Type
  1271 ;;                  1    wreg      unsigned char 
  1272 ;; Registers used:
  1273 ;;		wreg, status,2, status,0, cstack
  1274 ;; Tracked objects:
  1275 ;;		On entry : 0/0
  1276 ;;		On exit  : 0/0
  1277 ;;		Unchanged: 0/0
  1278 ;; Data sizes:     COMRAM   BANK0   BANK1   BANK2   BANK3   BANK4   BANK5   BANK6   BANK7   BANK8   BANK9  BANK10  BANK1
      +1  BANK12  BANK13  BANK14
  1279 ;;      Params:         0       0       0       0       0       0       0       0       0       0       0       0       
      +0       0       0       0
  1280 ;;      Locals:         0       0       0       0       0       0       0       0       0       0       0       0       
      +0       0       0       0
  1281 ;;      Temps:          0       0       0       0       0       0       0       0       0       0       0       0       
      +0       0       0       0
  1282 ;;      Totals:         0       0       0       0       0       0       0       0       0       0       0       0       
      +0       0       0       0
  1283 ;;Total ram usage:        0 bytes
  1284 ;; Hardware stack levels used: 1
  1285 ;; Hardware stack levels required when called: 3
  1286 ;; This function calls:
  1287 ;;		_I2C2Stop
  1288 ;;		_I2C2TransmitAddress
  1289 ;; This function is called by:
  1290 ;;		_SearchProcess
  1291 ;; This function uses a non-reentrant model
  1292 ;;
  1293                           
  1294                           	psect	text8
  1295  0008DA                     __ptext8:
  1296                           	callstack 0
  1297  0008DA                     _I2C2Scan:
  1298                           	callstack 26
  1299  0008DA                     
  1300                           ;SensorBoard.c: 419:     scanAddress = 0x10;
  1301  0008DA  0E10               	movlw	16
  1302  0008DC  6E2D               	movwf	_scanAddress^0,c
  1303  0008DE                     l1217:
  1304                           
  1305                           ;SensorBoard.c: 422:     {;SensorBoard.c: 423:         if(I2C2TransmitAddress(scanAddres
      +                          s) == 0xFF) {I2C2Stop(); return scanAddress;} else {scanAddress += 2;}
  1306  0008DE  502D               	movf	_scanAddress^0,w,c
  1307  0008E0  ECBF  F003         	call	_I2C2TransmitAddress
  1308  0008E4  0AFF               	xorlw	255
  1309  0008E6  A4D8               	btfss	status,2,c
  1310  0008E8  EF78  F004         	goto	u221
  1311  0008EC  EF7A  F004         	goto	u220
  1312  0008F0                     u221:
  1313  0008F0  EF7F  F004         	goto	l1227
  1314  0008F4                     u220:
  1315  0008F4  EC04  F005         	call	_I2C2Stop	;wreg free
  1316  0008F8  502D               	movf	_scanAddress^0,w,c
  1317  0008FA  EF8A  F004         	goto	l265
  1318  0008FE                     l1227:
  1319  0008FE  0E02               	movlw	2
  1320  000900  262D               	addwf	_scanAddress^0,f,c
  1321  000902                     
  1322                           ;SensorBoard.c: 424:         if(scanAddress >= 0b10000000) {return 0x00;}
  1323  000902  0E7F               	movlw	127
  1324  000904  642D               	cpfsgt	_scanAddress^0,c
  1325  000906  EF87  F004         	goto	u231
  1326  00090A  EF89  F004         	goto	u230
  1327  00090E                     u231:
  1328  00090E  EF6F  F004         	goto	l1217
  1329  000912                     u230:
  1330  000912  0E00               	movlw	0
  1331  000914                     l265:
  1332  000914  0012               	return		;funcret
  1333  000916                     __end_of_I2C2Scan:
  1334                           	callstack 0
  1335                           
  1336 ;; *************** function _RequestData *****************
  1337 ;; Defined at:
  1338 ;;		line 531 in file "SensorBoard.c"
  1339 ;; Parameters:    Size  Location     Type
  1340 ;;		None
  1341 ;; Auto vars:     Size  Location     Type
  1342 ;;  i               1   13[COMRAM] unsigned char 
  1343 ;;  byteCount       1   12[COMRAM] unsigned char 
  1344 ;;  i2              1   11[COMRAM] unsigned char 
  1345 ;;  lastSensor      1   10[COMRAM] unsigned char 
  1346 ;;  distanceByte    1    9[COMRAM] unsigned char 
  1347 ;;  sensorID        1    8[COMRAM] unsigned char 
  1348 ;; Return value:  Size  Location     Type
  1349 ;;                  1    wreg      void 
  1350 ;; Registers used:
  1351 ;;		wreg, fsr1l, fsr1h, fsr2l, fsr2h, status,2, status,0, cstack
  1352 ;; Tracked objects:
  1353 ;;		On entry : 0/0
  1354 ;;		On exit  : 0/0
  1355 ;;		Unchanged: 0/0
  1356 ;; Data sizes:     COMRAM   BANK0   BANK1   BANK2   BANK3   BANK4   BANK5   BANK6   BANK7   BANK8   BANK9  BANK10  BANK1
      +1  BANK12  BANK13  BANK14
  1357 ;;      Params:         0       0       0       0       0       0       0       0       0       0       0       0       
      +0       0       0       0
  1358 ;;      Locals:         6       0       0       0       0       0       0       0       0       0       0       0       
      +0       0       0       0
  1359 ;;      Temps:          0       0       0       0       0       0       0       0       0       0       0       0       
      +0       0       0       0
  1360 ;;      Totals:         6       0       0       0       0       0       0       0       0       0       0       0       
      +0       0       0       0
  1361 ;;Total ram usage:        6 bytes
  1362 ;; Hardware stack levels used: 1
  1363 ;; Hardware stack levels required when called: 3
  1364 ;; This function calls:
  1365 ;;		_I2C2RequestData
  1366 ;;		_I2C2Stop
  1367 ;;		_I2C2TransmitAddress
  1368 ;;		_I2C2TransmitData
  1369 ;;		_ReadEEPROM
  1370 ;; This function is called by:
  1371 ;;		_main
  1372 ;; This function uses a non-reentrant model
  1373 ;;
  1374                           
  1375                           	psect	text9
  1376  0002C4                     __ptext9:
  1377                           	callstack 0
  1378  0002C4                     _RequestData:
  1379                           	callstack 27
  1380  0002C4                     
  1381                           ;SensorBoard.c: 533:     char lastSensor = 0;
  1382  0002C4  0E00               	movlw	0
  1383  0002C6  6E39               	movwf	RequestData@lastSensor^0,c
  1384                           
  1385                           ;SensorBoard.c: 535:     char i, i2;;SensorBoard.c: 536:     char byteCount = 0;
  1386  0002C8  0E00               	movlw	0
  1387  0002CA  6E3B               	movwf	RequestData@byteCount^0,c
  1388                           
  1389                           ;SensorBoard.c: 538:     char sensorID;;SensorBoard.c: 539:     char distanceBytes;;Sens
      +                          orBoard.c: 542:     for(i = 0x10; i <= 0x1E; i+=2)
  1390  0002CC  0E10               	movlw	16
  1391  0002CE  6E3C               	movwf	RequestData@i^0,c
  1392  0002D0                     l1893:
  1393                           
  1394                           ;SensorBoard.c: 543:     {;SensorBoard.c: 544:         if(ReadEEPROM(i) != 0) {lastSenso
      +                          r = i;}
  1395  0002D0  503C               	movf	RequestData@i^0,w,c
  1396  0002D2  EC17  F005         	call	_ReadEEPROM
  1397  0002D6  0900               	iorlw	0
  1398  0002D8  B4D8               	btfsc	status,2,c
  1399  0002DA  EF71  F001         	goto	u1161
  1400  0002DE  EF73  F001         	goto	u1160
  1401  0002E2                     u1161:
  1402  0002E2  EF75  F001         	goto	l1897
  1403  0002E6                     u1160:
  1404  0002E6  C03C  F039         	movff	RequestData@i,RequestData@lastSensor
  1405  0002EA                     l1897:
  1406                           
  1407                           ;SensorBoard.c: 545:     }
  1408  0002EA  0E02               	movlw	2
  1409  0002EC  263C               	addwf	RequestData@i^0,f,c
  1410  0002EE  0E1E               	movlw	30
  1411  0002F0  643C               	cpfsgt	RequestData@i^0,c
  1412  0002F2  EF7D  F001         	goto	u1171
  1413  0002F6  EF7F  F001         	goto	u1170
  1414  0002FA                     u1171:
  1415  0002FA  EF68  F001         	goto	l1893
  1416  0002FE                     u1170:
  1417  0002FE                     
  1418                           ;SensorBoard.c: 547:     for(i = 0x10; i <= lastSensor; i+=2)
  1419  0002FE  0E10               	movlw	16
  1420  000300  6E3C               	movwf	RequestData@i^0,c
  1421  000302  EF0D  F002         	goto	l326
  1422  000306                     l1901:
  1423                           
  1424                           ;SensorBoard.c: 548:     {;SensorBoard.c: 549:         sensorID = ReadEEPROM(i);
  1425  000306  503C               	movf	RequestData@i^0,w,c
  1426  000308  EC17  F005         	call	_ReadEEPROM
  1427  00030C  6E37               	movwf	RequestData@sensorID^0,c
  1428  00030E                     
  1429                           ;SensorBoard.c: 550:         distanceBytes = ReadEEPROM(i | 0x01);
  1430  00030E  503C               	movf	RequestData@i^0,w,c
  1431  000310  0901               	iorlw	1
  1432  000312  EC17  F005         	call	_ReadEEPROM
  1433  000316  6E38               	movwf	RequestData@distanceBytes^0,c
  1434  000318                     
  1435                           ;SensorBoard.c: 552:         if(I2C2TransmitAddress(i) == 0x00) {break;}
  1436  000318  503C               	movf	RequestData@i^0,w,c
  1437  00031A  ECBF  F003         	call	_I2C2TransmitAddress
  1438  00031E  0900               	iorlw	0
  1439  000320  A4D8               	btfss	status,2,c
  1440  000322  EF95  F001         	goto	u1181
  1441  000326  EF97  F001         	goto	u1180
  1442  00032A                     u1181:
  1443  00032A  EF99  F001         	goto	l1909
  1444  00032E                     u1180:
  1445  00032E  EF16  F002         	goto	l329
  1446  000332                     l1909:
  1447                           
  1448                           ;SensorBoard.c: 553:         if(I2C2TransmitData(0x00) == 0x00) {break;}
  1449  000332  0E00               	movlw	0
  1450  000334  EC30  F004         	call	_I2C2TransmitData
  1451  000338  0900               	iorlw	0
  1452  00033A  A4D8               	btfss	status,2,c
  1453  00033C  EFA2  F001         	goto	u1191
  1454  000340  EFA4  F001         	goto	u1190
  1455  000344                     u1191:
  1456  000344  EFA6  F001         	goto	l1913
  1457  000348                     u1190:
  1458  000348  EF16  F002         	goto	l329
  1459  00034C                     l1913:
  1460                           
  1461                           ;SensorBoard.c: 554:         I2C2Stop();
  1462  00034C  EC04  F005         	call	_I2C2Stop	;wreg free
  1463  000350                     
  1464                           ;SensorBoard.c: 556:         if(I2C2RequestData(1, i | 0x01) == 0x00) {break;}
  1465  000350  503C               	movf	RequestData@i^0,w,c
  1466  000352  0901               	iorlw	1
  1467  000354  6E33               	movwf	I2C2RequestData@readAddr^0,c
  1468  000356  0E01               	movlw	1
  1469  000358  EC19  F002         	call	_I2C2RequestData
  1470  00035C  0900               	iorlw	0
  1471  00035E  A4D8               	btfss	status,2,c
  1472  000360  EFB4  F001         	goto	u1201
  1473  000364  EFB6  F001         	goto	u1200
  1474  000368                     u1201:
  1475  000368  EFB8  F001         	goto	l331
  1476  00036C                     u1200:
  1477  00036C  EF16  F002         	goto	l329
  1478  000370                     l331:
  1479                           
  1480                           ;SensorBoard.c: 557:         distData[0] = I2C2Data;
  1481  000370  C025  F022         	movff	_I2C2Data,_distData
  1482  000374                     
  1483                           ;SensorBoard.c: 558:         if(I2C2RequestData(2, 0x00) == 0x00) {break;}
  1484  000374  0E00               	movlw	0
  1485  000376  6E33               	movwf	I2C2RequestData@readAddr^0,c
  1486  000378  0E02               	movlw	2
  1487  00037A  EC19  F002         	call	_I2C2RequestData
  1488  00037E  0900               	iorlw	0
  1489  000380  A4D8               	btfss	status,2,c
  1490  000382  EFC5  F001         	goto	u1211
  1491  000386  EFC7  F001         	goto	u1210
  1492  00038A                     u1211:
  1493  00038A  EFC9  F001         	goto	l332
  1494  00038E                     u1210:
  1495  00038E  EF16  F002         	goto	l329
  1496  000392                     l332:
  1497                           
  1498                           ;SensorBoard.c: 559:         distData[1] = I2C2Data;
  1499  000392  C025  F023         	movff	_I2C2Data,_distData+1
  1500  000396                     
  1501                           ;SensorBoard.c: 560:         if(I2C2RequestData(3, 0x00) == 0x00) {break;}
  1502  000396  0E00               	movlw	0
  1503  000398  6E33               	movwf	I2C2RequestData@readAddr^0,c
  1504  00039A  0E03               	movlw	3
  1505  00039C  EC19  F002         	call	_I2C2RequestData
  1506  0003A0  0900               	iorlw	0
  1507  0003A2  A4D8               	btfss	status,2,c
  1508  0003A4  EFD6  F001         	goto	u1221
  1509  0003A8  EFD8  F001         	goto	u1220
  1510  0003AC                     u1221:
  1511  0003AC  EFDA  F001         	goto	l333
  1512  0003B0                     u1220:
  1513  0003B0  EF16  F002         	goto	l329
  1514  0003B4                     l333:
  1515                           
  1516                           ;SensorBoard.c: 561:         distData[2] = I2C2Data;
  1517  0003B4  C025  F024         	movff	_I2C2Data,_distData+2
  1518  0003B8                     
  1519                           ;SensorBoard.c: 563:         if(sensorID == 'L') {if(distData[1] != 0) {distData[0] = 0x
      +                          FF;}}
  1520  0003B8  0E4C               	movlw	76
  1521  0003BA  1837               	xorwf	RequestData@sensorID^0,w,c
  1522  0003BC  A4D8               	btfss	status,2,c
  1523  0003BE  EFE3  F001         	goto	u1231
  1524  0003C2  EFE5  F001         	goto	u1230
  1525  0003C6                     u1231:
  1526  0003C6  EFEE  F001         	goto	l1933
  1527  0003CA                     u1230:
  1528  0003CA  5023               	movf	(_distData+1)^0,w,c
  1529  0003CC  B4D8               	btfsc	status,2,c
  1530  0003CE  EFEB  F001         	goto	u1241
  1531  0003D2  EFED  F001         	goto	u1240
  1532  0003D6                     u1241:
  1533  0003D6  EFEE  F001         	goto	l1933
  1534  0003DA                     u1240:
  1535  0003DA  6822               	setf	_distData^0,c
  1536  0003DC                     l1933:
  1537                           
  1538                           ;SensorBoard.c: 565:         for(i2 = 1; i2 <= distanceBytes; i2++)
  1539  0003DC  0E01               	movlw	1
  1540  0003DE  6E3A               	movwf	RequestData@i2^0,c
  1541  0003E0  EF02  F002         	goto	l1941
  1542  0003E4                     l1935:
  1543                           
  1544                           ;SensorBoard.c: 566:         {;SensorBoard.c: 567:             byteCount++;
  1545  0003E4  2A3B               	incf	RequestData@byteCount^0,f,c
  1546  0003E6                     
  1547                           ;SensorBoard.c: 568:             I2C1Registers[byteCount] = distData[i2 - 1];
  1548  0003E6  0E21               	movlw	low (_distData+65535)
  1549  0003E8  243A               	addwf	RequestData@i2^0,w,c
  1550  0003EA  6ED9               	movwf	fsr2l,c
  1551  0003EC  6ADA               	clrf	fsr2h,c
  1552  0003EE  0E00               	movlw	high (_distData+65535)
  1553  0003F0  22DA               	addwfc	fsr2h,f,c
  1554  0003F2  0E01               	movlw	low _I2C1Registers
  1555  0003F4  243B               	addwf	RequestData@byteCount^0,w,c
  1556  0003F6  6EE1               	movwf	fsr1l,c
  1557  0003F8  6AE2               	clrf	fsr1h,c
  1558  0003FA  0E00               	movlw	high _I2C1Registers
  1559  0003FC  22E2               	addwfc	fsr1h,f,c
  1560  0003FE  CFDF FFE7          	movff	indf2,indf1
  1561  000402                     
  1562                           ;SensorBoard.c: 569:         }
  1563  000402  2A3A               	incf	RequestData@i2^0,f,c
  1564  000404                     l1941:
  1565  000404  503A               	movf	RequestData@i2^0,w,c
  1566  000406  5C38               	subwf	RequestData@distanceBytes^0,w,c
  1567  000408  B0D8               	btfsc	status,0,c
  1568  00040A  EF09  F002         	goto	u1251
  1569  00040E  EF0B  F002         	goto	u1250
  1570  000412                     u1251:
  1571  000412  EFF2  F001         	goto	l1935
  1572  000416                     u1250:
  1573  000416                     
  1574                           ;SensorBoard.c: 570:     }
  1575  000416  0E02               	movlw	2
  1576  000418  263C               	addwf	RequestData@i^0,f,c
  1577  00041A                     l326:
  1578  00041A  503C               	movf	RequestData@i^0,w,c
  1579  00041C  5C39               	subwf	RequestData@lastSensor^0,w,c
  1580  00041E  B0D8               	btfsc	status,0,c
  1581  000420  EF14  F002         	goto	u1261
  1582  000424  EF16  F002         	goto	u1260
  1583  000428                     u1261:
  1584  000428  EF83  F001         	goto	l1901
  1585  00042C                     u1260:
  1586  00042C                     l329:
  1587                           
  1588                           ;SensorBoard.c: 571:     I2C1Registers[0] = byteCount;
  1589  00042C  C03B  F001         	movff	RequestData@byteCount,_I2C1Registers
  1590  000430  0012               	return		;funcret
  1591  000432                     __end_of_RequestData:
  1592                           	callstack 0
  1593                           
  1594 ;; *************** function _ReadEEPROM *****************
  1595 ;; Defined at:
  1596 ;;		line 307 in file "SensorBoard.c"
  1597 ;; Parameters:    Size  Location     Type
  1598 ;;  address         1    wreg     unsigned char 
  1599 ;; Auto vars:     Size  Location     Type
  1600 ;;  address         1    4[COMRAM] unsigned char 
  1601 ;; Return value:  Size  Location     Type
  1602 ;;                  1    wreg      unsigned char 
  1603 ;; Registers used:
  1604 ;;		wreg, status,2
  1605 ;; Tracked objects:
  1606 ;;		On entry : 0/0
  1607 ;;		On exit  : 0/0
  1608 ;;		Unchanged: 0/0
  1609 ;; Data sizes:     COMRAM   BANK0   BANK1   BANK2   BANK3   BANK4   BANK5   BANK6   BANK7   BANK8   BANK9  BANK10  BANK1
      +1  BANK12  BANK13  BANK14
  1610 ;;      Params:         0       0       0       0       0       0       0       0       0       0       0       0       
      +0       0       0       0
  1611 ;;      Locals:         1       0       0       0       0       0       0       0       0       0       0       0       
      +0       0       0       0
  1612 ;;      Temps:          0       0       0       0       0       0       0       0       0       0       0       0       
      +0       0       0       0
  1613 ;;      Totals:         1       0       0       0       0       0       0       0       0       0       0       0       
      +0       0       0       0
  1614 ;;Total ram usage:        1 bytes
  1615 ;; Hardware stack levels used: 1
  1616 ;; Hardware stack levels required when called: 2
  1617 ;; This function calls:
  1618 ;;		Nothing
  1619 ;; This function is called by:
  1620 ;;		_SaveSensor
  1621 ;;		_RequestData
  1622 ;; This function uses a non-reentrant model
  1623 ;;
  1624                           
  1625                           	psect	text10
  1626  000A2E                     __ptext10:
  1627                           	callstack 0
  1628  000A2E                     _ReadEEPROM:
  1629                           	callstack 26
  1630                           
  1631                           ;incstack = 0
  1632                           ;ReadEEPROM@address stored from wreg
  1633  000A2E  6E33               	movwf	ReadEEPROM@address^0,c
  1634  000A30                     
  1635                           ;SensorBoard.c: 307: char ReadEEPROM(char address);SensorBoard.c: 308: {;SensorBoard.c: 
      +                          309:     NVMADR = address;
  1636  000A30  C033  FF7E         	movff	ReadEEPROM@address,3966	;volatile
  1637  000A34  6A7F               	clrf	127,c	;volatile
  1638  000A36                     
  1639                           ;SensorBoard.c: 310:     NVMCON1bits.RD = 1;
  1640  000A36  8081               	bsf	129,0,c	;volsfr
  1641  000A38                     
  1642                           ;SensorBoard.c: 311:     return NVMDAT;
  1643  000A38  5080               	movf	128,w,c	;volatile
  1644  000A3A  0012               	return		;funcret
  1645  000A3C                     __end_of_ReadEEPROM:
  1646                           	callstack 0
  1647                           
  1648 ;; *************** function _I2C2TransmitData *****************
  1649 ;; Defined at:
  1650 ;;		line 332 in file "SensorBoard.c"
  1651 ;; Parameters:    Size  Location     Type
  1652 ;;  data            1    wreg     unsigned char 
  1653 ;; Auto vars:     Size  Location     Type
  1654 ;;  data            1    4[COMRAM] unsigned char 
  1655 ;; Return value:  Size  Location     Type
  1656 ;;                  1    wreg      unsigned char 
  1657 ;; Registers used:
  1658 ;;		wreg
  1659 ;; Tracked objects:
  1660 ;;		On entry : 0/0
  1661 ;;		On exit  : 0/0
  1662 ;;		Unchanged: 0/0
  1663 ;; Data sizes:     COMRAM   BANK0   BANK1   BANK2   BANK3   BANK4   BANK5   BANK6   BANK7   BANK8   BANK9  BANK10  BANK1
      +1  BANK12  BANK13  BANK14
  1664 ;;      Params:         0       0       0       0       0       0       0       0       0       0       0       0       
      +0       0       0       0
  1665 ;;      Locals:         1       0       0       0       0       0       0       0       0       0       0       0       
      +0       0       0       0
  1666 ;;      Temps:          0       0       0       0       0       0       0       0       0       0       0       0       
      +0       0       0       0
  1667 ;;      Totals:         1       0       0       0       0       0       0       0       0       0       0       0       
      +0       0       0       0
  1668 ;;Total ram usage:        1 bytes
  1669 ;; Hardware stack levels used: 1
  1670 ;; Hardware stack levels required when called: 2
  1671 ;; This function calls:
  1672 ;;		Nothing
  1673 ;; This function is called by:
  1674 ;;		_SaveSensor
  1675 ;;		_RequestData
  1676 ;; This function uses a non-reentrant model
  1677 ;;
  1678                           
  1679                           	psect	text11
  1680  000860                     __ptext11:
  1681                           	callstack 0
  1682  000860                     _I2C2TransmitData:
  1683                           	callstack 26
  1684                           
  1685                           ;incstack = 0
  1686                           ;I2C2TransmitData@data stored from wreg
  1687  000860  6E33               	movwf	I2C2TransmitData@data^0,c
  1688  000862                     
  1689                           ;SensorBoard.c: 332: char I2C2TransmitData (char data);SensorBoard.c: 333: {;SensorBoard
      +                          .c: 334:     SSP2BUF = data;
  1690  000862  C033  FE92         	movff	I2C2TransmitData@data,3730	;volatile
  1691  000866                     l207:
  1692  000866  010E               	movlb	14	; () banked
  1693  000868  B595               	btfsc	149,2,b	;volatile
  1694  00086A  EF39  F004         	goto	u61
  1695  00086E  EF3B  F004         	goto	u60
  1696  000872                     u61:
  1697  000872  EF33  F004         	goto	l207
  1698  000876                     u60:
  1699  000876                     
  1700                           ; BSR set to: 14
  1701                           ;SensorBoard.c: 337:     if(SSP2CON2bits.ACKSTAT == 1)
  1702  000876  AD97               	btfss	151,6,b	;volatile
  1703  000878  EF40  F004         	goto	u71
  1704  00087C  EF42  F004         	goto	u70
  1705  000880                     u71:
  1706  000880  EF4D  F004         	goto	l1115
  1707  000884                     u70:
  1708  000884                     
  1709                           ; BSR set to: 14
  1710                           ;SensorBoard.c: 338:     {;SensorBoard.c: 339:         SSP2CON2bits.PEN = 1;
  1711  000884  8597               	bsf	151,2,b	;volatile
  1712  000886                     l211:
  1713                           
  1714                           ; BSR set to: 14
  1715  000886  B597               	btfsc	151,2,b	;volatile
  1716  000888  EF48  F004         	goto	u81
  1717  00088C  EF4A  F004         	goto	u80
  1718  000890                     u81:
  1719  000890  EF43  F004         	goto	l211
  1720  000894                     u80:
  1721  000894                     
  1722                           ; BSR set to: 14
  1723                           ;SensorBoard.c: 341:         return 0x00;
  1724  000894  0E00               	movlw	0
  1725  000896  EF4E  F004         	goto	l214
  1726  00089A                     l1115:
  1727                           
  1728                           ; BSR set to: 14
  1729                           ;SensorBoard.c: 344:     return 0xFF;
  1730  00089A  0EFF               	movlw	255
  1731  00089C                     l214:
  1732                           
  1733                           ; BSR set to: 14
  1734  00089C  0012               	return		;funcret
  1735  00089E                     __end_of_I2C2TransmitData:
  1736                           	callstack 0
  1737                           
  1738 ;; *************** function _I2C2TransmitAddress *****************
  1739 ;; Defined at:
  1740 ;;		line 314 in file "SensorBoard.c"
  1741 ;; Parameters:    Size  Location     Type
  1742 ;;  addr            1    wreg     unsigned char 
  1743 ;; Auto vars:     Size  Location     Type
  1744 ;;  addr            1    4[COMRAM] unsigned char 
  1745 ;; Return value:  Size  Location     Type
  1746 ;;                  1    wreg      unsigned char 
  1747 ;; Registers used:
  1748 ;;		wreg
  1749 ;; Tracked objects:
  1750 ;;		On entry : 0/0
  1751 ;;		On exit  : 0/0
  1752 ;;		Unchanged: 0/0
  1753 ;; Data sizes:     COMRAM   BANK0   BANK1   BANK2   BANK3   BANK4   BANK5   BANK6   BANK7   BANK8   BANK9  BANK10  BANK1
      +1  BANK12  BANK13  BANK14
  1754 ;;      Params:         0       0       0       0       0       0       0       0       0       0       0       0       
      +0       0       0       0
  1755 ;;      Locals:         1       0       0       0       0       0       0       0       0       0       0       0       
      +0       0       0       0
  1756 ;;      Temps:          0       0       0       0       0       0       0       0       0       0       0       0       
      +0       0       0       0
  1757 ;;      Totals:         1       0       0       0       0       0       0       0       0       0       0       0       
      +0       0       0       0
  1758 ;;Total ram usage:        1 bytes
  1759 ;; Hardware stack levels used: 1
  1760 ;; Hardware stack levels required when called: 2
  1761 ;; This function calls:
  1762 ;;		Nothing
  1763 ;; This function is called by:
  1764 ;;		_I2C2Scan
  1765 ;;		_SaveSensor
  1766 ;;		_RequestData
  1767 ;; This function uses a non-reentrant model
  1768 ;;
  1769                           
  1770                           	psect	text12
  1771  00077E                     __ptext12:
  1772                           	callstack 0
  1773  00077E                     _I2C2TransmitAddress:
  1774                           	callstack 26
  1775                           
  1776                           ; BSR set to: 14
  1777                           ;incstack = 0
  1778                           ;I2C2TransmitAddress@addr stored from wreg
  1779  00077E  6E33               	movwf	I2C2TransmitAddress@addr^0,c
  1780  000780                     
  1781                           ;SensorBoard.c: 314: char I2C2TransmitAddress(char addr);SensorBoard.c: 315: {;SensorBoa
      +                          rd.c: 316:     SSP2CON2bits.SEN = 1;
  1782  000780  010E               	movlb	14	; () banked
  1783  000782  8197               	bsf	151,0,b	;volatile
  1784  000784                     l194:
  1785                           
  1786                           ; BSR set to: 14
  1787  000784  B197               	btfsc	151,0,b	;volatile
  1788  000786  EFC7  F003         	goto	u21
  1789  00078A  EFC9  F003         	goto	u20
  1790  00078E                     u21:
  1791  00078E  EFC2  F003         	goto	l194
  1792  000792                     u20:
  1793  000792                     
  1794                           ; BSR set to: 14
  1795                           ;SensorBoard.c: 319:     SSP2BUF = addr;
  1796  000792  C033  FE92         	movff	I2C2TransmitAddress@addr,3730	;volatile
  1797  000796                     l197:
  1798                           
  1799                           ; BSR set to: 14
  1800  000796  B595               	btfsc	149,2,b	;volatile
  1801  000798  EFD0  F003         	goto	u31
  1802  00079C  EFD2  F003         	goto	u30
  1803  0007A0                     u31:
  1804  0007A0  EFCB  F003         	goto	l197
  1805  0007A4                     u30:
  1806  0007A4                     
  1807                           ; BSR set to: 14
  1808                           ;SensorBoard.c: 322:     if(SSP2CON2bits.ACKSTAT == 1)
  1809  0007A4  AD97               	btfss	151,6,b	;volatile
  1810  0007A6  EFD7  F003         	goto	u41
  1811  0007AA  EFD9  F003         	goto	u40
  1812  0007AE                     u41:
  1813  0007AE  EFE4  F003         	goto	l1103
  1814  0007B2                     u40:
  1815  0007B2                     
  1816                           ; BSR set to: 14
  1817                           ;SensorBoard.c: 323:     {;SensorBoard.c: 324:         SSP2CON2bits.PEN = 1;
  1818  0007B2  8597               	bsf	151,2,b	;volatile
  1819  0007B4                     l201:
  1820                           
  1821                           ; BSR set to: 14
  1822  0007B4  B597               	btfsc	151,2,b	;volatile
  1823  0007B6  EFDF  F003         	goto	u51
  1824  0007BA  EFE1  F003         	goto	u50
  1825  0007BE                     u51:
  1826  0007BE  EFDA  F003         	goto	l201
  1827  0007C2                     u50:
  1828  0007C2                     
  1829                           ; BSR set to: 14
  1830                           ;SensorBoard.c: 326:         return 0x00;
  1831  0007C2  0E00               	movlw	0
  1832  0007C4  EFE5  F003         	goto	l204
  1833  0007C8                     l1103:
  1834                           
  1835                           ; BSR set to: 14
  1836                           ;SensorBoard.c: 329:     return 0xFF;
  1837  0007C8  0EFF               	movlw	255
  1838  0007CA                     l204:
  1839                           
  1840                           ; BSR set to: 14
  1841  0007CA  0012               	return		;funcret
  1842  0007CC                     __end_of_I2C2TransmitAddress:
  1843                           	callstack 0
  1844                           
  1845 ;; *************** function _I2C2Stop *****************
  1846 ;; Defined at:
  1847 ;;		line 409 in file "SensorBoard.c"
  1848 ;; Parameters:    Size  Location     Type
  1849 ;;		None
  1850 ;; Auto vars:     Size  Location     Type
  1851 ;;		None
  1852 ;; Return value:  Size  Location     Type
  1853 ;;                  1    wreg      void 
  1854 ;; Registers used:
  1855 ;;		None
  1856 ;; Tracked objects:
  1857 ;;		On entry : 0/0
  1858 ;;		On exit  : 0/0
  1859 ;;		Unchanged: 0/0
  1860 ;; Data sizes:     COMRAM   BANK0   BANK1   BANK2   BANK3   BANK4   BANK5   BANK6   BANK7   BANK8   BANK9  BANK10  BANK1
      +1  BANK12  BANK13  BANK14
  1861 ;;      Params:         0       0       0       0       0       0       0       0       0       0       0       0       
      +0       0       0       0
  1862 ;;      Locals:         0       0       0       0       0       0       0       0       0       0       0       0       
      +0       0       0       0
  1863 ;;      Temps:          0       0       0       0       0       0       0       0       0       0       0       0       
      +0       0       0       0
  1864 ;;      Totals:         0       0       0       0       0       0       0       0       0       0       0       0       
      +0       0       0       0
  1865 ;;Total ram usage:        0 bytes
  1866 ;; Hardware stack levels used: 1
  1867 ;; Hardware stack levels required when called: 2
  1868 ;; This function calls:
  1869 ;;		Nothing
  1870 ;; This function is called by:
  1871 ;;		_I2C2Scan
  1872 ;;		_SaveSensor
  1873 ;;		_RequestData
  1874 ;; This function uses a non-reentrant model
  1875 ;;
  1876                           
  1877                           	psect	text13
  1878  000A08                     __ptext13:
  1879                           	callstack 0
  1880  000A08                     _I2C2Stop:
  1881                           	callstack 26
  1882  000A08                     
  1883                           ;SensorBoard.c: 411:     SSP2CON2bits.PEN = 1;
  1884  000A08  010E               	movlb	14	; () banked
  1885  000A0A  8597               	bsf	151,2,b	;volatile
  1886  000A0C                     l257:
  1887                           
  1888                           ; BSR set to: 14
  1889  000A0C  B597               	btfsc	151,2,b	;volatile
  1890  000A0E  EF0B  F005         	goto	u201
  1891  000A12  EF0D  F005         	goto	u200
  1892  000A16                     u201:
  1893  000A16  EF06  F005         	goto	l257
  1894  000A1A                     u200:
  1895  000A1A                     
  1896                           ; BSR set to: 14
  1897  000A1A  0012               	return		;funcret
  1898  000A1C                     __end_of_I2C2Stop:
  1899                           	callstack 0
  1900                           
  1901 ;; *************** function _I2C2RequestData *****************
  1902 ;; Defined at:
  1903 ;;		line 347 in file "SensorBoard.c"
  1904 ;; Parameters:    Size  Location     Type
  1905 ;;  function        1    wreg     unsigned char 
  1906 ;;  readAddr        1    4[COMRAM] unsigned char 
  1907 ;; Auto vars:     Size  Location     Type
  1908 ;;  function        1    7[COMRAM] unsigned char 
  1909 ;; Return value:  Size  Location     Type
  1910 ;;                  1    wreg      unsigned char 
  1911 ;; Registers used:
  1912 ;;		wreg, status,2, status,0
  1913 ;; Tracked objects:
  1914 ;;		On entry : 0/0
  1915 ;;		On exit  : 0/0
  1916 ;;		Unchanged: 0/0
  1917 ;; Data sizes:     COMRAM   BANK0   BANK1   BANK2   BANK3   BANK4   BANK5   BANK6   BANK7   BANK8   BANK9  BANK10  BANK1
      +1  BANK12  BANK13  BANK14
  1918 ;;      Params:         1       0       0       0       0       0       0       0       0       0       0       0       
      +0       0       0       0
  1919 ;;      Locals:         1       0       0       0       0       0       0       0       0       0       0       0       
      +0       0       0       0
  1920 ;;      Temps:          2       0       0       0       0       0       0       0       0       0       0       0       
      +0       0       0       0
  1921 ;;      Totals:         4       0       0       0       0       0       0       0       0       0       0       0       
      +0       0       0       0
  1922 ;;Total ram usage:        4 bytes
  1923 ;; Hardware stack levels used: 1
  1924 ;; Hardware stack levels required when called: 2
  1925 ;; This function calls:
  1926 ;;		Nothing
  1927 ;; This function is called by:
  1928 ;;		_SaveSensor
  1929 ;;		_RequestData
  1930 ;; This function uses a non-reentrant model
  1931 ;;
  1932                           
  1933                           	psect	text14
  1934  000432                     __ptext14:
  1935                           	callstack 0
  1936  000432                     _I2C2RequestData:
  1937                           	callstack 26
  1938                           
  1939                           ; BSR set to: 14
  1940                           ;incstack = 0
  1941                           ;I2C2RequestData@function stored from wreg
  1942  000432  6E36               	movwf	I2C2RequestData@function^0,c
  1943  000434                     
  1944                           ;SensorBoard.c: 347: char I2C2RequestData (char function, char readAddr);SensorBoard.c: 
      +                          348: {;SensorBoard.c: 349:     switch (function)
  1945  000434  EF8A  F002         	goto	l1737
  1946  000438                     l218:
  1947                           
  1948                           ;SensorBoard.c: 356:             SSP2CON2bits.SEN = 1;
  1949  000438  010E               	movlb	14	; () banked
  1950  00043A  8197               	bsf	151,0,b	;volatile
  1951  00043C                     l219:
  1952                           
  1953                           ; BSR set to: 14
  1954  00043C  B197               	btfsc	151,0,b	;volatile
  1955  00043E  EF23  F002         	goto	u811
  1956  000442  EF25  F002         	goto	u810
  1957  000446                     u811:
  1958  000446  EF1E  F002         	goto	l219
  1959  00044A                     u810:
  1960  00044A                     
  1961                           ; BSR set to: 14
  1962                           ;SensorBoard.c: 359:             SSP2BUF = readAddr;
  1963  00044A  C033  FE92         	movff	I2C2RequestData@readAddr,3730	;volatile
  1964  00044E                     l222:
  1965                           
  1966                           ; BSR set to: 14
  1967  00044E  B595               	btfsc	149,2,b	;volatile
  1968  000450  EF2C  F002         	goto	u821
  1969  000454  EF2E  F002         	goto	u820
  1970  000458                     u821:
  1971  000458  EF27  F002         	goto	l222
  1972  00045C                     u820:
  1973  00045C                     
  1974                           ; BSR set to: 14
  1975                           ;SensorBoard.c: 362:             if(SSP2CON2bits.ACKSTAT == 1)
  1976  00045C  AD97               	btfss	151,6,b	;volatile
  1977  00045E  EF33  F002         	goto	u831
  1978  000462  EF35  F002         	goto	u830
  1979  000466                     u831:
  1980  000466  EF40  F002         	goto	l225
  1981  00046A                     u830:
  1982  00046A                     
  1983                           ; BSR set to: 14
  1984                           ;SensorBoard.c: 363:             {;SensorBoard.c: 364:                 SSP2CON2bits.PEN 
      +                          = 1;
  1985  00046A  8597               	bsf	151,2,b	;volatile
  1986  00046C                     l226:
  1987                           
  1988                           ; BSR set to: 14
  1989  00046C  B597               	btfsc	151,2,b	;volatile
  1990  00046E  EF3B  F002         	goto	u841
  1991  000472  EF3D  F002         	goto	u840
  1992  000476                     u841:
  1993  000476  EF36  F002         	goto	l226
  1994  00047A                     u840:
  1995  00047A                     l1707:
  1996                           
  1997                           ;SensorBoard.c: 366:                 return 0x00;
  1998  00047A  0E00               	movlw	0
  1999  00047C  EFA3  F002         	goto	l229
  2000  000480                     l225:
  2001                           
  2002                           ; BSR set to: 14
  2003                           ;SensorBoard.c: 369:             SSP2CON2bits.RCEN = 1;
  2004  000480  8797               	bsf	151,3,b	;volatile
  2005  000482                     l230:
  2006                           
  2007                           ; BSR set to: 14
  2008  000482  B797               	btfsc	151,3,b	;volatile
  2009  000484  EF46  F002         	goto	u851
  2010  000488  EF48  F002         	goto	u850
  2011  00048C                     u851:
  2012  00048C  EF41  F002         	goto	l230
  2013  000490                     u850:
  2014  000490                     
  2015                           ; BSR set to: 14
  2016                           ;SensorBoard.c: 372:             I2C2Data = SSP2BUF;
  2017  000490  CE92 F025          	movff	3730,_I2C2Data	;volatile
  2018                           
  2019                           ;SensorBoard.c: 373:             SSP2CON2bits.ACKDT = 0;
  2020  000494  9B97               	bcf	151,5,b	;volatile
  2021                           
  2022                           ;SensorBoard.c: 374:             SSP2CON2bits.ACKEN = 1;
  2023  000496  8997               	bsf	151,4,b	;volatile
  2024  000498                     l233:
  2025                           
  2026                           ; BSR set to: 14
  2027  000498  B997               	btfsc	151,4,b	;volatile
  2028  00049A  EF51  F002         	goto	u861
  2029  00049E  EF53  F002         	goto	u860
  2030  0004A2                     u861:
  2031  0004A2  EF4C  F002         	goto	l233
  2032  0004A6                     u860:
  2033  0004A6                     l1711:
  2034                           
  2035                           ; BSR set to: 14
  2036                           ;SensorBoard.c: 377:             return 0xFF;
  2037  0004A6  0EFF               	movlw	255
  2038  0004A8  EFA3  F002         	goto	l229
  2039  0004AC                     l237:
  2040                           
  2041                           ;SensorBoard.c: 380:             SSP2CON2bits.RCEN = 1;
  2042  0004AC  010E               	movlb	14	; () banked
  2043  0004AE  8797               	bsf	151,3,b	;volatile
  2044  0004B0                     l238:
  2045                           
  2046                           ; BSR set to: 14
  2047  0004B0  B797               	btfsc	151,3,b	;volatile
  2048  0004B2  EF5D  F002         	goto	u871
  2049  0004B6  EF5F  F002         	goto	u870
  2050  0004BA                     u871:
  2051  0004BA  EF58  F002         	goto	l238
  2052  0004BE                     u870:
  2053  0004BE                     
  2054                           ; BSR set to: 14
  2055                           ;SensorBoard.c: 383:             I2C2Data = SSP2BUF;
  2056  0004BE  CE92 F025          	movff	3730,_I2C2Data	;volatile
  2057                           
  2058                           ;SensorBoard.c: 384:             SSP2CON2bits.ACKDT = 0;
  2059  0004C2  9B97               	bcf	151,5,b	;volatile
  2060                           
  2061                           ;SensorBoard.c: 385:             SSP2CON2bits.ACKEN = 1;
  2062  0004C4  8997               	bsf	151,4,b	;volatile
  2063  0004C6                     l241:
  2064                           
  2065                           ; BSR set to: 14
  2066  0004C6  B997               	btfsc	151,4,b	;volatile
  2067  0004C8  EF68  F002         	goto	u881
  2068  0004CC  EF6A  F002         	goto	u880
  2069  0004D0                     u881:
  2070  0004D0  EF63  F002         	goto	l241
  2071  0004D4                     u880:
  2072  0004D4  EF53  F002         	goto	l1711
  2073  0004D8                     l244:
  2074                           
  2075                           ;SensorBoard.c: 391:             SSP2CON2bits.RCEN = 1;
  2076  0004D8  010E               	movlb	14	; () banked
  2077  0004DA  8797               	bsf	151,3,b	;volatile
  2078  0004DC                     l245:
  2079                           
  2080                           ; BSR set to: 14
  2081  0004DC  B797               	btfsc	151,3,b	;volatile
  2082  0004DE  EF73  F002         	goto	u891
  2083  0004E2  EF75  F002         	goto	u890
  2084  0004E6                     u891:
  2085  0004E6  EF6E  F002         	goto	l245
  2086  0004EA                     u890:
  2087  0004EA                     
  2088                           ; BSR set to: 14
  2089                           ;SensorBoard.c: 394:             I2C2Data = SSP2BUF;
  2090  0004EA  CE92 F025          	movff	3730,_I2C2Data	;volatile
  2091                           
  2092                           ;SensorBoard.c: 395:             SSP2CON2bits.ACKDT = 1;
  2093  0004EE  8B97               	bsf	151,5,b	;volatile
  2094                           
  2095                           ;SensorBoard.c: 396:             SSP2CON2bits.ACKEN = 1;
  2096  0004F0  8997               	bsf	151,4,b	;volatile
  2097  0004F2                     l248:
  2098                           
  2099                           ; BSR set to: 14
  2100  0004F2  B997               	btfsc	151,4,b	;volatile
  2101  0004F4  EF7E  F002         	goto	u901
  2102  0004F8  EF80  F002         	goto	u900
  2103  0004FC                     u901:
  2104  0004FC  EF79  F002         	goto	l248
  2105  000500                     u900:
  2106  000500                     
  2107                           ; BSR set to: 14
  2108                           ;SensorBoard.c: 398:             SSP2CON2bits.PEN = 1;
  2109  000500  8597               	bsf	151,2,b	;volatile
  2110  000502                     l251:
  2111                           
  2112                           ; BSR set to: 14
  2113  000502  B597               	btfsc	151,2,b	;volatile
  2114  000504  EF86  F002         	goto	u911
  2115  000508  EF88  F002         	goto	u910
  2116  00050C                     u911:
  2117  00050C  EF81  F002         	goto	l251
  2118  000510                     u910:
  2119  000510  EF53  F002         	goto	l1711
  2120  000514                     l1737:
  2121  000514  5036               	movf	I2C2RequestData@function^0,w,c
  2122  000516  6E34               	movwf	??_I2C2RequestData^0,c
  2123  000518  6A35               	clrf	(??_I2C2RequestData+1)^0,c
  2124                           
  2125                           ; Switch on 2 bytes has been partitioned into a top level switch of size 1, and 1 sub-sw
      +                          itches
  2126                           ; Switch size 1, requested type "simple"
  2127                           ; Number of cases is 1, Range of values is 0 to 0
  2128                           ; switch strategies available:
  2129                           ; Name         Instructions Cycles
  2130                           ; simple_byte            4     3 (average)
  2131                           ;	Chosen strategy is simple_byte
  2132  00051A  5035               	movf	(??_I2C2RequestData+1)^0,w,c
  2133  00051C  0A00               	xorlw	0	; case 0
  2134  00051E  B4D8               	btfsc	status,2,c
  2135  000520  EF94  F002         	goto	l2047
  2136  000524  EF3D  F002         	goto	l1707
  2137  000528                     l2047:
  2138                           
  2139                           ; Switch size 1, requested type "simple"
  2140                           ; Number of cases is 3, Range of values is 1 to 3
  2141                           ; switch strategies available:
  2142                           ; Name         Instructions Cycles
  2143                           ; simple_byte           10     6 (average)
  2144                           ;	Chosen strategy is simple_byte
  2145  000528  5034               	movf	??_I2C2RequestData^0,w,c
  2146  00052A  0A01               	xorlw	1	; case 1
  2147  00052C  B4D8               	btfsc	status,2,c
  2148  00052E  EF1C  F002         	goto	l218
  2149  000532  0A03               	xorlw	3	; case 2
  2150  000534  B4D8               	btfsc	status,2,c
  2151  000536  EF56  F002         	goto	l237
  2152  00053A  0A01               	xorlw	1	; case 3
  2153  00053C  B4D8               	btfsc	status,2,c
  2154  00053E  EF6C  F002         	goto	l244
  2155  000542  EF3D  F002         	goto	l1707
  2156  000546                     l229:
  2157  000546  0012               	return		;funcret
  2158  000548                     __end_of_I2C2RequestData:
  2159                           	callstack 0
  2160                           
  2161 ;; *************** function _PortsConfig *****************
  2162 ;; Defined at:
  2163 ;;		line 148 in file "SensorBoard.c"
  2164 ;; Parameters:    Size  Location     Type
  2165 ;;		None
  2166 ;; Auto vars:     Size  Location     Type
  2167 ;;		None
  2168 ;; Return value:  Size  Location     Type
  2169 ;;                  1    wreg      void 
  2170 ;; Registers used:
  2171 ;;		wreg, status,2
  2172 ;; Tracked objects:
  2173 ;;		On entry : 0/0
  2174 ;;		On exit  : 0/0
  2175 ;;		Unchanged: 0/0
  2176 ;; Data sizes:     COMRAM   BANK0   BANK1   BANK2   BANK3   BANK4   BANK5   BANK6   BANK7   BANK8   BANK9  BANK10  BANK1
      +1  BANK12  BANK13  BANK14
  2177 ;;      Params:         0       0       0       0       0       0       0       0       0       0       0       0       
      +0       0       0       0
  2178 ;;      Locals:         0       0       0       0       0       0       0       0       0       0       0       0       
      +0       0       0       0
  2179 ;;      Temps:          0       0       0       0       0       0       0       0       0       0       0       0       
      +0       0       0       0
  2180 ;;      Totals:         0       0       0       0       0       0       0       0       0       0       0       0       
      +0       0       0       0
  2181 ;;Total ram usage:        0 bytes
  2182 ;; Hardware stack levels used: 1
  2183 ;; Hardware stack levels required when called: 2
  2184 ;; This function calls:
  2185 ;;		Nothing
  2186 ;; This function is called by:
  2187 ;;		_main
  2188 ;; This function uses a non-reentrant model
  2189 ;;
  2190                           
  2191                           	psect	text15
  2192  0006B6                     __ptext15:
  2193                           	callstack 0
  2194  0006B6                     _PortsConfig:
  2195                           	callstack 28
  2196  0006B6                     
  2197                           ;SensorBoard.c: 150:     PPSLOCK = 0x55;
  2198  0006B6  0E55               	movlw	85
  2199  0006B8  010E               	movlb	14	; () banked
  2200  0006BA  6FA0               	movwf	160,b	;volsfr
  2201                           
  2202                           ;SensorBoard.c: 151:     PPSLOCK = 0xAA;
  2203  0006BC  0EAA               	movlw	170
  2204  0006BE  6FA0               	movwf	160,b	;volsfr
  2205  0006C0                     
  2206                           ; BSR set to: 14
  2207                           ;SensorBoard.c: 152:     PPSLOCKbits.PPSLOCKED = 0;
  2208  0006C0  91A0               	bcf	160,0,b	;volsfr
  2209                           
  2210                           ;SensorBoard.c: 154:     RC0PPS = 0x10;
  2211  0006C2  0E10               	movlw	16
  2212  0006C4  6FF7               	movwf	247,b	;volatile
  2213                           
  2214                           ;SensorBoard.c: 155:     RC1PPS = 0x0F;
  2215  0006C6  0E0F               	movlw	15
  2216  0006C8  6FF8               	movwf	248,b	;volatile
  2217                           
  2218                           ;SensorBoard.c: 156:     SSP1DATPPS = 0b00010000;
  2219  0006CA  0E10               	movlw	16
  2220  0006CC  6FB8               	movwf	184,b	;volatile
  2221                           
  2222                           ;SensorBoard.c: 157:     SSP1CLKPPS = 0b00010001;
  2223  0006CE  0E11               	movlw	17
  2224  0006D0  6FB7               	movwf	183,b	;volatile
  2225                           
  2226                           ;SensorBoard.c: 159:     RD0PPS = 0x12;
  2227  0006D2  0E12               	movlw	18
  2228  0006D4  6FFF               	movwf	255,b	;volatile
  2229                           
  2230                           ;SensorBoard.c: 160:     RD1PPS = 0x11;
  2231  0006D6  0E11               	movlw	17
  2232  0006D8  010F               	movlb	15	; () banked
  2233  0006DA  6F00               	movwf	0,b	;volatile
  2234                           
  2235                           ;SensorBoard.c: 161:     SSP2DATPPS = 0b00011000;
  2236  0006DC  0E18               	movlw	24
  2237  0006DE  010E               	movlb	14	; () banked
  2238  0006E0  6F90               	movwf	144,b	;volatile
  2239                           
  2240                           ;SensorBoard.c: 162:     SSP2CLKPPS = 0b00011001;
  2241  0006E2  0E19               	movlw	25
  2242  0006E4  6F8F               	movwf	143,b	;volatile
  2243                           
  2244                           ;SensorBoard.c: 164:     PPSLOCK = 0x55;
  2245  0006E6  0E55               	movlw	85
  2246  0006E8  6FA0               	movwf	160,b	;volsfr
  2247                           
  2248                           ;SensorBoard.c: 165:     PPSLOCK = 0xAA;
  2249  0006EA  0EAA               	movlw	170
  2250  0006EC  6FA0               	movwf	160,b	;volsfr
  2251  0006EE                     
  2252                           ; BSR set to: 14
  2253                           ;SensorBoard.c: 166:     PPSLOCKbits.PPSLOCKED = 1;
  2254  0006EE  81A0               	bsf	160,0,b	;volsfr
  2255                           
  2256                           ;SensorBoard.c: 168:     LATA = 0x00;
  2257  0006F0  0E00               	movlw	0
  2258  0006F2  6E83               	movwf	131,c	;volatile
  2259                           
  2260                           ;SensorBoard.c: 169:     LATB = 0x00;
  2261  0006F4  0E00               	movlw	0
  2262  0006F6  6E84               	movwf	132,c	;volatile
  2263                           
  2264                           ;SensorBoard.c: 170:     LATC = 0x00;
  2265  0006F8  0E00               	movlw	0
  2266  0006FA  6E85               	movwf	133,c	;volatile
  2267                           
  2268                           ;SensorBoard.c: 171:     LATD = 0x00;
  2269  0006FC  0E00               	movlw	0
  2270  0006FE  6E86               	movwf	134,c	;volatile
  2271                           
  2272                           ;SensorBoard.c: 173:     ANSELA = 0x00;
  2273  000700  0E00               	movlw	0
  2274  000702  010F               	movlb	15	; () banked
  2275  000704  6F11               	movwf	17,b	;volatile
  2276                           
  2277                           ;SensorBoard.c: 174:     ANSELB = 0x00;
  2278  000706  0E00               	movlw	0
  2279  000708  6F19               	movwf	25,b	;volatile
  2280                           
  2281                           ;SensorBoard.c: 175:     ANSELC = 0x00;
  2282  00070A  0E00               	movlw	0
  2283  00070C  6F21               	movwf	33,b	;volatile
  2284                           
  2285                           ;SensorBoard.c: 176:     ANSELD = 0x00;
  2286  00070E  0E00               	movlw	0
  2287  000710  6F26               	movwf	38,b	;volatile
  2288                           
  2289                           ;SensorBoard.c: 178:     TRISA = 0x00;
  2290  000712  0E00               	movlw	0
  2291  000714  6E88               	movwf	136,c	;volatile
  2292  000716                     
  2293                           ; BSR set to: 15
  2294                           ;SensorBoard.c: 179:     TRISB = 0xFF;
  2295  000716  6889               	setf	137,c	;volatile
  2296  000718                     
  2297                           ; BSR set to: 15
  2298                           ;SensorBoard.c: 180:     TRISC = 0xFF;
  2299  000718  688A               	setf	138,c	;volatile
  2300  00071A                     
  2301                           ; BSR set to: 15
  2302                           ;SensorBoard.c: 181:     TRISD = 0xFF;
  2303  00071A  688B               	setf	139,c	;volatile
  2304  00071C                     
  2305                           ; BSR set to: 15
  2306  00071C  0012               	return		;funcret
  2307  00071E                     __end_of_PortsConfig:
  2308                           	callstack 0
  2309                           
  2310 ;; *************** function _NVMConfig *****************
  2311 ;; Defined at:
  2312 ;;		line 278 in file "SensorBoard.c"
  2313 ;; Parameters:    Size  Location     Type
  2314 ;;		None
  2315 ;; Auto vars:     Size  Location     Type
  2316 ;;		None
  2317 ;; Return value:  Size  Location     Type
  2318 ;;                  1    wreg      void 
  2319 ;; Registers used:
  2320 ;;		wreg, status,2
  2321 ;; Tracked objects:
  2322 ;;		On entry : 0/0
  2323 ;;		On exit  : 0/0
  2324 ;;		Unchanged: 0/0
  2325 ;; Data sizes:     COMRAM   BANK0   BANK1   BANK2   BANK3   BANK4   BANK5   BANK6   BANK7   BANK8   BANK9  BANK10  BANK1
      +1  BANK12  BANK13  BANK14
  2326 ;;      Params:         0       0       0       0       0       0       0       0       0       0       0       0       
      +0       0       0       0
  2327 ;;      Locals:         0       0       0       0       0       0       0       0       0       0       0       0       
      +0       0       0       0
  2328 ;;      Temps:          0       0       0       0       0       0       0       0       0       0       0       0       
      +0       0       0       0
  2329 ;;      Totals:         0       0       0       0       0       0       0       0       0       0       0       0       
      +0       0       0       0
  2330 ;;Total ram usage:        0 bytes
  2331 ;; Hardware stack levels used: 1
  2332 ;; Hardware stack levels required when called: 2
  2333 ;; This function calls:
  2334 ;;		Nothing
  2335 ;; This function is called by:
  2336 ;;		_main
  2337 ;; This function uses a non-reentrant model
  2338 ;;
  2339                           
  2340                           	psect	text16
  2341  000A4A                     __ptext16:
  2342                           	callstack 0
  2343  000A4A                     _NVMConfig:
  2344                           	callstack 28
  2345  000A4A                     
  2346                           ;SensorBoard.c: 280:     NVMCON1bits.NVMREG = 0b00;
  2347  000A4A  0E3F               	movlw	-193
  2348  000A4C  1681               	andwf	129,f,c	;volsfr
  2349  000A4E                     
  2350                           ;SensorBoard.c: 281:     NVMCON1bits.WREN = 0;
  2351  000A4E  9481               	bcf	129,2,c	;volsfr
  2352  000A50  0012               	return		;funcret
  2353  000A52                     __end_of_NVMConfig:
  2354                           	callstack 0
  2355                           
  2356 ;; *************** function _IntConfig *****************
  2357 ;; Defined at:
  2358 ;;		line 226 in file "SensorBoard.c"
  2359 ;; Parameters:    Size  Location     Type
  2360 ;;		None
  2361 ;; Auto vars:     Size  Location     Type
  2362 ;;		None
  2363 ;; Return value:  Size  Location     Type
  2364 ;;                  1    wreg      void 
  2365 ;; Registers used:
  2366 ;;		wreg, status,2
  2367 ;; Tracked objects:
  2368 ;;		On entry : 0/0
  2369 ;;		On exit  : 0/0
  2370 ;;		Unchanged: 0/0
  2371 ;; Data sizes:     COMRAM   BANK0   BANK1   BANK2   BANK3   BANK4   BANK5   BANK6   BANK7   BANK8   BANK9  BANK10  BANK1
      +1  BANK12  BANK13  BANK14
  2372 ;;      Params:         0       0       0       0       0       0       0       0       0       0       0       0       
      +0       0       0       0
  2373 ;;      Locals:         0       0       0       0       0       0       0       0       0       0       0       0       
      +0       0       0       0
  2374 ;;      Temps:          0       0       0       0       0       0       0       0       0       0       0       0       
      +0       0       0       0
  2375 ;;      Totals:         0       0       0       0       0       0       0       0       0       0       0       0       
      +0       0       0       0
  2376 ;;Total ram usage:        0 bytes
  2377 ;; Hardware stack levels used: 1
  2378 ;; Hardware stack levels required when called: 2
  2379 ;; This function calls:
  2380 ;;		Nothing
  2381 ;; This function is called by:
  2382 ;;		_main
  2383 ;; This function uses a non-reentrant model
  2384 ;;
  2385                           
  2386                           	psect	text17
  2387  0009BA                     __ptext17:
  2388                           	callstack 0
  2389  0009BA                     _IntConfig:
  2390                           	callstack 28
  2391  0009BA                     
  2392                           ;SensorBoard.c: 228:     PIR1 = 0;
  2393  0009BA  0E00               	movlw	0
  2394  0009BC  010E               	movlb	14	; () banked
  2395  0009BE  6FCB               	movwf	203,b	;volatile
  2396                           
  2397                           ;SensorBoard.c: 229:     PIR2 = 0;
  2398  0009C0  0E00               	movlw	0
  2399  0009C2  6FCC               	movwf	204,b	;volatile
  2400                           
  2401                           ;SensorBoard.c: 230:     PIR3 = 0;
  2402  0009C4  0E00               	movlw	0
  2403  0009C6  6FCD               	movwf	205,b	;volatile
  2404                           
  2405                           ;SensorBoard.c: 231:     PIR4 = 0;
  2406  0009C8  0E00               	movlw	0
  2407  0009CA  6FCE               	movwf	206,b	;volatile
  2408                           
  2409                           ;SensorBoard.c: 232:     PIR5 = 0;
  2410  0009CC  0E00               	movlw	0
  2411  0009CE  6FCF               	movwf	207,b	;volatile
  2412  0009D0                     
  2413                           ; BSR set to: 14
  2414                           ;SensorBoard.c: 234:     INTCONbits.IPEN = 0;
  2415  0009D0  9AF2               	bcf	242,5,c	;volatile
  2416  0009D2                     
  2417                           ; BSR set to: 14
  2418                           ;SensorBoard.c: 235:     INTCONbits.PEIE = 1;
  2419  0009D2  8CF2               	bsf	242,6,c	;volatile
  2420  0009D4                     
  2421                           ; BSR set to: 14
  2422                           ;SensorBoard.c: 236:     INTCONbits.GIE = 1;
  2423  0009D4  8EF2               	bsf	242,7,c	;volatile
  2424  0009D6                     
  2425                           ; BSR set to: 14
  2426  0009D6  0012               	return		;funcret
  2427  0009D8                     __end_of_IntConfig:
  2428                           	callstack 0
  2429                           
  2430 ;; *************** function _HandleTMR4 *****************
  2431 ;; Defined at:
  2432 ;;		line 500 in file "SensorBoard.c"
  2433 ;; Parameters:    Size  Location     Type
  2434 ;;		None
  2435 ;; Auto vars:     Size  Location     Type
  2436 ;;		None
  2437 ;; Return value:  Size  Location     Type
  2438 ;;                  1    wreg      void 
  2439 ;; Registers used:
  2440 ;;		status,2, status,0
  2441 ;; Tracked objects:
  2442 ;;		On entry : 0/0
  2443 ;;		On exit  : 0/0
  2444 ;;		Unchanged: 0/0
  2445 ;; Data sizes:     COMRAM   BANK0   BANK1   BANK2   BANK3   BANK4   BANK5   BANK6   BANK7   BANK8   BANK9  BANK10  BANK1
      +1  BANK12  BANK13  BANK14
  2446 ;;      Params:         0       0       0       0       0       0       0       0       0       0       0       0       
      +0       0       0       0
  2447 ;;      Locals:         0       0       0       0       0       0       0       0       0       0       0       0       
      +0       0       0       0
  2448 ;;      Temps:          0       0       0       0       0       0       0       0       0       0       0       0       
      +0       0       0       0
  2449 ;;      Totals:         0       0       0       0       0       0       0       0       0       0       0       0       
      +0       0       0       0
  2450 ;;Total ram usage:        0 bytes
  2451 ;; Hardware stack levels used: 1
  2452 ;; Hardware stack levels required when called: 2
  2453 ;; This function calls:
  2454 ;;		Nothing
  2455 ;; This function is called by:
  2456 ;;		_main
  2457 ;; This function uses a non-reentrant model
  2458 ;;
  2459                           
  2460                           	psect	text18
  2461  000A62                     __ptext18:
  2462                           	callstack 0
  2463  000A62                     _HandleTMR4:
  2464                           	callstack 28
  2465  000A62                     
  2466                           ;SensorBoard.c: 502:     pFlag &= 0b01111111;
  2467  000A62  9E2E               	bcf	_pFlag^0,7,c
  2468  000A64  0012               	return		;funcret
  2469  000A66                     __end_of_HandleTMR4:
  2470                           	callstack 0
  2471                           
  2472 ;; *************** function _HandleTMR2 *****************
  2473 ;; Defined at:
  2474 ;;		line 485 in file "SensorBoard.c"
  2475 ;; Parameters:    Size  Location     Type
  2476 ;;		None
  2477 ;; Auto vars:     Size  Location     Type
  2478 ;;		None
  2479 ;; Return value:  Size  Location     Type
  2480 ;;                  1    wreg      void 
  2481 ;; Registers used:
  2482 ;;		wreg, status,2, status,0
  2483 ;; Tracked objects:
  2484 ;;		On entry : 0/0
  2485 ;;		On exit  : 0/0
  2486 ;;		Unchanged: 0/0
  2487 ;; Data sizes:     COMRAM   BANK0   BANK1   BANK2   BANK3   BANK4   BANK5   BANK6   BANK7   BANK8   BANK9  BANK10  BANK1
      +1  BANK12  BANK13  BANK14
  2488 ;;      Params:         0       0       0       0       0       0       0       0       0       0       0       0       
      +0       0       0       0
  2489 ;;      Locals:         0       0       0       0       0       0       0       0       0       0       0       0       
      +0       0       0       0
  2490 ;;      Temps:          0       0       0       0       0       0       0       0       0       0       0       0       
      +0       0       0       0
  2491 ;;      Totals:         0       0       0       0       0       0       0       0       0       0       0       0       
      +0       0       0       0
  2492 ;;Total ram usage:        0 bytes
  2493 ;; Hardware stack levels used: 1
  2494 ;; Hardware stack levels required when called: 2
  2495 ;; This function calls:
  2496 ;;		Nothing
  2497 ;; This function is called by:
  2498 ;;		_main
  2499 ;; This function uses a non-reentrant model
  2500 ;;
  2501                           
  2502                           	psect	text19
  2503  0007CC                     __ptext19:
  2504                           	callstack 0
  2505  0007CC                     _HandleTMR2:
  2506                           	callstack 28
  2507  0007CC                     
  2508                           ;SensorBoard.c: 488:     if(T2Delay != 150) {T2Delay++;} else
  2509  0007CC  0E96               	movlw	150
  2510  0007CE  182A               	xorwf	_T2Delay^0,w,c
  2511  0007D0  B4D8               	btfsc	status,2,c
  2512  0007D2  EFED  F003         	goto	u451
  2513  0007D6  EFEF  F003         	goto	u450
  2514  0007DA                     u451:
  2515  0007DA  EFF2  F003         	goto	l1379
  2516  0007DE                     u450:
  2517  0007DE  2A2A               	incf	_T2Delay^0,f,c
  2518  0007E0  EF0B  F004         	goto	l299
  2519  0007E4                     l1379:
  2520                           
  2521                           ;SensorBoard.c: 489:     {;SensorBoard.c: 490:         T2Count++;
  2522  0007E4  2A2B               	incf	_T2Count^0,f,c
  2523  0007E6                     
  2524                           ;SensorBoard.c: 491:         if(T2Count == 6)
  2525  0007E6  0E06               	movlw	6
  2526  0007E8  182B               	xorwf	_T2Count^0,w,c
  2527  0007EA  A4D8               	btfss	status,2,c
  2528  0007EC  EFFA  F003         	goto	u461
  2529  0007F0  EFFC  F003         	goto	u460
  2530  0007F4                     u461:
  2531  0007F4  EF0B  F004         	goto	l299
  2532  0007F8                     u460:
  2533  0007F8                     
  2534                           ;SensorBoard.c: 492:         {;SensorBoard.c: 493:             T2Count = 0;
  2535  0007F8  0E00               	movlw	0
  2536  0007FA  6E2B               	movwf	_T2Count^0,c
  2537  0007FC                     
  2538                           ;SensorBoard.c: 494:             LATA = LATA << 1;
  2539  0007FC  5083               	movf	131,w,c	;volatile
  2540  0007FE  2483               	addwf	131,w,c	;volatile
  2541  000800  6E83               	movwf	131,c	;volatile
  2542  000802                     
  2543                           ;SensorBoard.c: 495:             if(LATA == 0) {LATA = 1;}
  2544  000802  5083               	movf	131,w,c	;volatile
  2545  000804  A4D8               	btfss	status,2,c
  2546  000806  EF07  F004         	goto	u471
  2547  00080A  EF09  F004         	goto	u470
  2548  00080E                     u471:
  2549  00080E  EF0B  F004         	goto	l299
  2550  000812                     u470:
  2551  000812  0E01               	movlw	1
  2552  000814  6E83               	movwf	131,c	;volatile
  2553  000816                     l299:
  2554  000816  0012               	return		;funcret
  2555  000818                     __end_of_HandleTMR2:
  2556                           	callstack 0
  2557                           
  2558 ;; *************** function _HandleIOC *****************
  2559 ;; Defined at:
  2560 ;;		line 505 in file "SensorBoard.c"
  2561 ;; Parameters:    Size  Location     Type
  2562 ;;		None
  2563 ;; Auto vars:     Size  Location     Type
  2564 ;;		None
  2565 ;; Return value:  Size  Location     Type
  2566 ;;                  1    wreg      void 
  2567 ;; Registers used:
  2568 ;;		wreg, status,2, status,0
  2569 ;; Tracked objects:
  2570 ;;		On entry : 0/0
  2571 ;;		On exit  : 0/0
  2572 ;;		Unchanged: 0/0
  2573 ;; Data sizes:     COMRAM   BANK0   BANK1   BANK2   BANK3   BANK4   BANK5   BANK6   BANK7   BANK8   BANK9  BANK10  BANK1
      +1  BANK12  BANK13  BANK14
  2574 ;;      Params:         0       0       0       0       0       0       0       0       0       0       0       0       
      +0       0       0       0
  2575 ;;      Locals:         0       0       0       0       0       0       0       0       0       0       0       0       
      +0       0       0       0
  2576 ;;      Temps:          0       0       0       0       0       0       0       0       0       0       0       0       
      +0       0       0       0
  2577 ;;      Totals:         0       0       0       0       0       0       0       0       0       0       0       0       
      +0       0       0       0
  2578 ;;Total ram usage:        0 bytes
  2579 ;; Hardware stack levels used: 1
  2580 ;; Hardware stack levels required when called: 2
  2581 ;; This function calls:
  2582 ;;		Nothing
  2583 ;; This function is called by:
  2584 ;;		_main
  2585 ;; This function uses a non-reentrant model
  2586 ;;
  2587                           
  2588                           	psect	text20
  2589  000944                     __ptext20:
  2590                           	callstack 0
  2591  000944                     _HandleIOC:
  2592                           	callstack 28
  2593  000944                     
  2594                           ;SensorBoard.c: 507:     if(PORTC & 0b00100000) {pFlag |= 0b00010000; T2Delay = 0;}
  2595  000944  AA8F               	btfss	143,5,c	;volatile
  2596  000946  EFA7  F004         	goto	u481
  2597  00094A  EFA9  F004         	goto	u480
  2598  00094E                     u481:
  2599  00094E  EFAC  F004         	goto	l1399
  2600  000952                     u480:
  2601  000952  882E               	bsf	_pFlag^0,4,c
  2602  000954  0E00               	movlw	0
  2603  000956  6E2A               	movwf	_T2Delay^0,c
  2604  000958                     l1399:
  2605                           
  2606                           ;SensorBoard.c: 508:     if(PORTC & 0b00010000) {pFlag |= 0b00001000; T2Delay = 0;}
  2607  000958  A88F               	btfss	143,4,c	;volatile
  2608  00095A  EFB1  F004         	goto	u491
  2609  00095E  EFB3  F004         	goto	u490
  2610  000962                     u491:
  2611  000962  EFB6  F004         	goto	l307
  2612  000966                     u490:
  2613  000966  862E               	bsf	_pFlag^0,3,c
  2614  000968  0E00               	movlw	0
  2615  00096A  6E2A               	movwf	_T2Delay^0,c
  2616  00096C                     l307:
  2617  00096C  0012               	return		;funcret
  2618  00096E                     __end_of_HandleIOC:
  2619                           	callstack 0
  2620                           
  2621 ;; *************** function _EraseSensors *****************
  2622 ;; Defined at:
  2623 ;;		line 521 in file "SensorBoard.c"
  2624 ;; Parameters:    Size  Location     Type
  2625 ;;		None
  2626 ;; Auto vars:     Size  Location     Type
  2627 ;;  i               1    6[COMRAM] unsigned char 
  2628 ;; Return value:  Size  Location     Type
  2629 ;;                  1    wreg      void 
  2630 ;; Registers used:
  2631 ;;		wreg, status,2, status,0, cstack
  2632 ;; Tracked objects:
  2633 ;;		On entry : 0/0
  2634 ;;		On exit  : 0/0
  2635 ;;		Unchanged: 0/0
  2636 ;; Data sizes:     COMRAM   BANK0   BANK1   BANK2   BANK3   BANK4   BANK5   BANK6   BANK7   BANK8   BANK9  BANK10  BANK1
      +1  BANK12  BANK13  BANK14
  2637 ;;      Params:         0       0       0       0       0       0       0       0       0       0       0       0       
      +0       0       0       0
  2638 ;;      Locals:         1       0       0       0       0       0       0       0       0       0       0       0       
      +0       0       0       0
  2639 ;;      Temps:          0       0       0       0       0       0       0       0       0       0       0       0       
      +0       0       0       0
  2640 ;;      Totals:         1       0       0       0       0       0       0       0       0       0       0       0       
      +0       0       0       0
  2641 ;;Total ram usage:        1 bytes
  2642 ;; Hardware stack levels used: 1
  2643 ;; Hardware stack levels required when called: 3
  2644 ;; This function calls:
  2645 ;;		_WriteToEEPROM
  2646 ;; This function is called by:
  2647 ;;		_main
  2648 ;; This function uses a non-reentrant model
  2649 ;;
  2650                           
  2651                           	psect	text21
  2652  00096E                     __ptext21:
  2653                           	callstack 0
  2654  00096E                     _EraseSensors:
  2655                           	callstack 27
  2656  00096E                     
  2657                           ;SensorBoard.c: 523:     char i;;SensorBoard.c: 524:     LATA = 0x0F;
  2658  00096E  0E0F               	movlw	15
  2659  000970  6E83               	movwf	131,c	;volatile
  2660                           
  2661                           ;SensorBoard.c: 525:     for (i = 0x10; i != 0x22 ; i++)
  2662  000972  0E10               	movlw	16
  2663  000974  6E35               	movwf	EraseSensors@i^0,c
  2664  000976                     l1881:
  2665                           
  2666                           ;SensorBoard.c: 526:     {;SensorBoard.c: 527:         WriteToEEPROM(i, 0x00);
  2667  000976  0E00               	movlw	0
  2668  000978  6E33               	movwf	WriteToEEPROM@val^0,c
  2669  00097A  5035               	movf	EraseSensors@i^0,w,c
  2670  00097C  EC8B  F004         	call	_WriteToEEPROM
  2671  000980                     
  2672                           ;SensorBoard.c: 528:     }
  2673  000980  2A35               	incf	EraseSensors@i^0,f,c
  2674  000982  0E22               	movlw	34
  2675  000984  1835               	xorwf	EraseSensors@i^0,w,c
  2676  000986  A4D8               	btfss	status,2,c
  2677  000988  EFC8  F004         	goto	u1151
  2678  00098C  EFCA  F004         	goto	u1150
  2679  000990                     u1151:
  2680  000990  EFBB  F004         	goto	l1881
  2681  000994                     u1150:
  2682  000994  0012               	return		;funcret
  2683  000996                     __end_of_EraseSensors:
  2684                           	callstack 0
  2685                           
  2686 ;; *************** function _WriteToEEPROM *****************
  2687 ;; Defined at:
  2688 ;;		line 288 in file "SensorBoard.c"
  2689 ;; Parameters:    Size  Location     Type
  2690 ;;  address         1    wreg     unsigned char 
  2691 ;;  val             1    4[COMRAM] unsigned char 
  2692 ;; Auto vars:     Size  Location     Type
  2693 ;;  address         1    5[COMRAM] unsigned char 
  2694 ;; Return value:  Size  Location     Type
  2695 ;;                  1    wreg      void 
  2696 ;; Registers used:
  2697 ;;		wreg, status,2
  2698 ;; Tracked objects:
  2699 ;;		On entry : 0/0
  2700 ;;		On exit  : 0/0
  2701 ;;		Unchanged: 0/0
  2702 ;; Data sizes:     COMRAM   BANK0   BANK1   BANK2   BANK3   BANK4   BANK5   BANK6   BANK7   BANK8   BANK9  BANK10  BANK1
      +1  BANK12  BANK13  BANK14
  2703 ;;      Params:         1       0       0       0       0       0       0       0       0       0       0       0       
      +0       0       0       0
  2704 ;;      Locals:         1       0       0       0       0       0       0       0       0       0       0       0       
      +0       0       0       0
  2705 ;;      Temps:          0       0       0       0       0       0       0       0       0       0       0       0       
      +0       0       0       0
  2706 ;;      Totals:         2       0       0       0       0       0       0       0       0       0       0       0       
      +0       0       0       0
  2707 ;;Total ram usage:        2 bytes
  2708 ;; Hardware stack levels used: 1
  2709 ;; Hardware stack levels required when called: 2
  2710 ;; This function calls:
  2711 ;;		Nothing
  2712 ;; This function is called by:
  2713 ;;		_SaveSensor
  2714 ;;		_EraseSensors
  2715 ;; This function uses a non-reentrant model
  2716 ;;
  2717                           
  2718                           	psect	text22
  2719  000916                     __ptext22:
  2720                           	callstack 0
  2721  000916                     _WriteToEEPROM:
  2722                           	callstack 26
  2723                           
  2724                           ;incstack = 0
  2725                           ;WriteToEEPROM@address stored from wreg
  2726  000916  6E34               	movwf	WriteToEEPROM@address^0,c
  2727  000918                     
  2728                           ;SensorBoard.c: 288: void WriteToEEPROM(char address, char val);SensorBoard.c: 289: {;Se
      +                          nsorBoard.c: 290:     INTCONbits.GIE = 0;
  2729  000918  9EF2               	bcf	242,7,c	;volatile
  2730  00091A                     
  2731                           ;SensorBoard.c: 292:     NVMADR = address;
  2732  00091A  C034  FF7E         	movff	WriteToEEPROM@address,3966	;volatile
  2733  00091E  6A7F               	clrf	127,c	;volatile
  2734  000920                     
  2735                           ;SensorBoard.c: 293:     NVMDAT = val;
  2736  000920  C033  FF80         	movff	WriteToEEPROM@val,3968	;volatile
  2737  000924                     
  2738                           ;SensorBoard.c: 295:     NVMCON1bits.WREN = 1;
  2739  000924  8481               	bsf	129,2,c	;volsfr
  2740  000926                     
  2741                           ;SensorBoard.c: 297:     NVMCON2 = 0x55;
  2742  000926  0E55               	movlw	85
  2743  000928  6E82               	movwf	130,c	;volsfr
  2744  00092A                     
  2745                           ;SensorBoard.c: 298:     NVMCON2 = 0xAA;
  2746  00092A  0EAA               	movlw	170
  2747  00092C  6E82               	movwf	130,c	;volsfr
  2748  00092E                     
  2749                           ;SensorBoard.c: 299:     NVMCON1bits.WR = 1;
  2750  00092E  8281               	bsf	129,1,c	;volsfr
  2751  000930                     l185:
  2752  000930  B281               	btfsc	129,1,c	;volsfr
  2753  000932  EF9D  F004         	goto	u801
  2754  000936  EF9F  F004         	goto	u800
  2755  00093A                     u801:
  2756  00093A  EF98  F004         	goto	l185
  2757  00093E                     u800:
  2758  00093E                     
  2759                           ;SensorBoard.c: 303:     NVMCON1bits.WR = 0;
  2760  00093E  9281               	bcf	129,1,c	;volsfr
  2761                           
  2762                           ;SensorBoard.c: 304:     INTCONbits.GIE = 1;
  2763  000940  8EF2               	bsf	242,7,c	;volatile
  2764  000942  0012               	return		;funcret
  2765  000944                     __end_of_WriteToEEPROM:
  2766                           	callstack 0
  2767                           
  2768 ;; *************** function _ISR *****************
  2769 ;; Defined at:
  2770 ;;		line 692 in file "SensorBoard.c"
  2771 ;; Parameters:    Size  Location     Type
  2772 ;;		None
  2773 ;; Auto vars:     Size  Location     Type
  2774 ;;		None
  2775 ;; Return value:  Size  Location     Type
  2776 ;;                  1    wreg      void 
  2777 ;; Registers used:
  2778 ;;		wreg, fsr2l, fsr2h, status,2, status,0, cstack
  2779 ;; Tracked objects:
  2780 ;;		On entry : 0/0
  2781 ;;		On exit  : 0/0
  2782 ;;		Unchanged: 0/0
  2783 ;; Data sizes:     COMRAM   BANK0   BANK1   BANK2   BANK3   BANK4   BANK5   BANK6   BANK7   BANK8   BANK9  BANK10  BANK1
      +1  BANK12  BANK13  BANK14
  2784 ;;      Params:         0       0       0       0       0       0       0       0       0       0       0       0       
      +0       0       0       0
  2785 ;;      Locals:         0       0       0       0       0       0       0       0       0       0       0       0       
      +0       0       0       0
  2786 ;;      Temps:          2       0       0       0       0       0       0       0       0       0       0       0       
      +0       0       0       0
  2787 ;;      Totals:         2       0       0       0       0       0       0       0       0       0       0       0       
      +0       0       0       0
  2788 ;;Total ram usage:        2 bytes
  2789 ;; Hardware stack levels used: 1
  2790 ;; Hardware stack levels required when called: 1
  2791 ;; This function calls:
  2792 ;;		_I2C1_ISR
  2793 ;;		_IOC_ISR
  2794 ;;		_TMR2_ISR
  2795 ;;		_TMR4_ISR
  2796 ;; This function is called by:
  2797 ;;		Interrupt level 2
  2798 ;; This function uses a non-reentrant model
  2799 ;;
  2800                           
  2801                           	psect	intcode
  2802  000008                     __pintcode:
  2803                           	callstack 0
  2804  000008                     _ISR:
  2805                           	callstack 26
  2806                           
  2807                           ;incstack = 0
  2808  000008  823D               	bsf	int$flags,1,c	;set compiler interrupt flag (level 2)
  2809  00000A  CFD9 F031          	movff	fsr2l,??_ISR
  2810  00000E  CFDA F032          	movff	fsr2h,??_ISR+1
  2811  000012                     
  2812                           ;SensorBoard.c: 694:     if (PIR4bits.TMR4IF == 1) {TMR4_ISR();}
  2813  000012  010E               	movlb	14	; () banked
  2814  000014  A7CE               	btfss	206,3,b	;volatile
  2815  000016  EF0F  F000         	goto	i2u70_41
  2816  00001A  EF11  F000         	goto	i2u70_40
  2817  00001E                     i2u70_41:
  2818  00001E  EF13  F000         	goto	i2l1575
  2819  000022                     i2u70_40:
  2820  000022                     
  2821                           ; BSR set to: 14
  2822  000022  EC29  F005         	call	_TMR4_ISR	;wreg free
  2823  000026                     i2l1575:
  2824                           
  2825                           ;SensorBoard.c: 695:     if (PIR4bits.TMR2IF == 1) {TMR2_ISR();}
  2826  000026  010E               	movlb	14	; () banked
  2827  000028  A3CE               	btfss	206,1,b	;volatile
  2828  00002A  EF19  F000         	goto	i2u71_41
  2829  00002E  EF1B  F000         	goto	i2u71_40
  2830  000032                     i2u71_41:
  2831  000032  EF1D  F000         	goto	i2l1579
  2832  000036                     i2u71_40:
  2833  000036                     
  2834                           ; BSR set to: 14
  2835  000036  EC2D  F005         	call	_TMR2_ISR	;wreg free
  2836  00003A                     i2l1579:
  2837                           
  2838                           ;SensorBoard.c: 697:     if (PIR0bits.IOCIF == 1) {IOC_ISR();}
  2839  00003A  010E               	movlb	14	; () banked
  2840  00003C  A9CA               	btfss	202,4,b	;volatile
  2841  00003E  EF23  F000         	goto	i2u72_41
  2842  000042  EF25  F000         	goto	i2u72_40
  2843  000046                     i2u72_41:
  2844  000046  EF27  F000         	goto	i2l1583
  2845  00004A                     i2u72_40:
  2846  00004A                     
  2847                           ; BSR set to: 14
  2848  00004A  EC1E  F005         	call	_IOC_ISR	;wreg free
  2849  00004E                     i2l1583:
  2850                           
  2851                           ;SensorBoard.c: 698:     if (PIR3bits.SSP1IF == 1) {I2C1_ISR();}
  2852  00004E  010E               	movlb	14	; () banked
  2853  000050  A1CD               	btfss	205,0,b	;volatile
  2854  000052  EF2D  F000         	goto	i2u73_41
  2855  000056  EF2F  F000         	goto	i2u73_40
  2856  00005A                     i2u73_41:
  2857  00005A  EF31  F000         	goto	i2l381
  2858  00005E                     i2u73_40:
  2859  00005E                     
  2860                           ; BSR set to: 14
  2861  00005E  ECA4  F002         	call	_I2C1_ISR	;wreg free
  2862  000062                     i2l381:
  2863  000062  C032  FFDA         	movff	??_ISR+1,fsr2h
  2864  000066  C031  FFD9         	movff	??_ISR,fsr2l
  2865  00006A  923D               	bcf	int$flags,1,c	;clear compiler interrupt flag (level 2)
  2866  00006C  0011               	retfie		f
  2867  00006E                     __end_of_ISR:
  2868                           	callstack 0
  2869                           
  2870 ;; *************** function _TMR4_ISR *****************
  2871 ;; Defined at:
  2872 ;;		line 612 in file "SensorBoard.c"
  2873 ;; Parameters:    Size  Location     Type
  2874 ;;		None
  2875 ;; Auto vars:     Size  Location     Type
  2876 ;;		None
  2877 ;; Return value:  Size  Location     Type
  2878 ;;                  1    wreg      void 
  2879 ;; Registers used:
  2880 ;;		status,2, status,0
  2881 ;; Tracked objects:
  2882 ;;		On entry : 0/0
  2883 ;;		On exit  : 0/0
  2884 ;;		Unchanged: 0/0
  2885 ;; Data sizes:     COMRAM   BANK0   BANK1   BANK2   BANK3   BANK4   BANK5   BANK6   BANK7   BANK8   BANK9  BANK10  BANK1
      +1  BANK12  BANK13  BANK14
  2886 ;;      Params:         0       0       0       0       0       0       0       0       0       0       0       0       
      +0       0       0       0
  2887 ;;      Locals:         0       0       0       0       0       0       0       0       0       0       0       0       
      +0       0       0       0
  2888 ;;      Temps:          0       0       0       0       0       0       0       0       0       0       0       0       
      +0       0       0       0
  2889 ;;      Totals:         0       0       0       0       0       0       0       0       0       0       0       0       
      +0       0       0       0
  2890 ;;Total ram usage:        0 bytes
  2891 ;; Hardware stack levels used: 1
  2892 ;; This function calls:
  2893 ;;		Nothing
  2894 ;; This function is called by:
  2895 ;;		_ISR
  2896 ;; This function uses a non-reentrant model
  2897 ;;
  2898                           
  2899                           	psect	text24
  2900  000A52                     __ptext24:
  2901                           	callstack 0
  2902  000A52                     _TMR4_ISR:
  2903                           	callstack 26
  2904  000A52                     
  2905                           ;SensorBoard.c: 614:     pFlag |= 0b10000000;
  2906  000A52  8E2E               	bsf	_pFlag^0,7,c
  2907  000A54                     
  2908                           ;SensorBoard.c: 615:     PIR4bits.TMR4IF = 0;
  2909  000A54  010E               	movlb	14	; () banked
  2910  000A56  97CE               	bcf	206,3,b	;volatile
  2911  000A58                     
  2912                           ; BSR set to: 14
  2913  000A58  0012               	return		;funcret
  2914  000A5A                     __end_of_TMR4_ISR:
  2915                           	callstack 0
  2916                           
  2917 ;; *************** function _TMR2_ISR *****************
  2918 ;; Defined at:
  2919 ;;		line 606 in file "SensorBoard.c"
  2920 ;; Parameters:    Size  Location     Type
  2921 ;;		None
  2922 ;; Auto vars:     Size  Location     Type
  2923 ;;		None
  2924 ;; Return value:  Size  Location     Type
  2925 ;;                  1    wreg      void 
  2926 ;; Registers used:
  2927 ;;		status,2, status,0
  2928 ;; Tracked objects:
  2929 ;;		On entry : 0/0
  2930 ;;		On exit  : 0/0
  2931 ;;		Unchanged: 0/0
  2932 ;; Data sizes:     COMRAM   BANK0   BANK1   BANK2   BANK3   BANK4   BANK5   BANK6   BANK7   BANK8   BANK9  BANK10  BANK1
      +1  BANK12  BANK13  BANK14
  2933 ;;      Params:         0       0       0       0       0       0       0       0       0       0       0       0       
      +0       0       0       0
  2934 ;;      Locals:         0       0       0       0       0       0       0       0       0       0       0       0       
      +0       0       0       0
  2935 ;;      Temps:          0       0       0       0       0       0       0       0       0       0       0       0       
      +0       0       0       0
  2936 ;;      Totals:         0       0       0       0       0       0       0       0       0       0       0       0       
      +0       0       0       0
  2937 ;;Total ram usage:        0 bytes
  2938 ;; Hardware stack levels used: 1
  2939 ;; This function calls:
  2940 ;;		Nothing
  2941 ;; This function is called by:
  2942 ;;		_ISR
  2943 ;; This function uses a non-reentrant model
  2944 ;;
  2945                           
  2946                           	psect	text25
  2947  000A5A                     __ptext25:
  2948                           	callstack 0
  2949  000A5A                     _TMR2_ISR:
  2950                           	callstack 26
  2951  000A5A                     
  2952                           ;SensorBoard.c: 608:     pFlag |= 0b01000000;
  2953  000A5A  8C2E               	bsf	_pFlag^0,6,c
  2954  000A5C                     
  2955                           ;SensorBoard.c: 609:     PIR4bits.TMR2IF = 0;
  2956  000A5C  010E               	movlb	14	; () banked
  2957  000A5E  93CE               	bcf	206,1,b	;volatile
  2958  000A60                     
  2959                           ; BSR set to: 14
  2960  000A60  0012               	return		;funcret
  2961  000A62                     __end_of_TMR2_ISR:
  2962                           	callstack 0
  2963                           
  2964 ;; *************** function _IOC_ISR *****************
  2965 ;; Defined at:
  2966 ;;		line 618 in file "SensorBoard.c"
  2967 ;; Parameters:    Size  Location     Type
  2968 ;;		None
  2969 ;; Auto vars:     Size  Location     Type
  2970 ;;		None
  2971 ;; Return value:  Size  Location     Type
  2972 ;;                  1    wreg      void 
  2973 ;; Registers used:
  2974 ;;		wreg, status,2, status,0
  2975 ;; Tracked objects:
  2976 ;;		On entry : 0/0
  2977 ;;		On exit  : 0/0
  2978 ;;		Unchanged: 0/0
  2979 ;; Data sizes:     COMRAM   BANK0   BANK1   BANK2   BANK3   BANK4   BANK5   BANK6   BANK7   BANK8   BANK9  BANK10  BANK1
      +1  BANK12  BANK13  BANK14
  2980 ;;      Params:         0       0       0       0       0       0       0       0       0       0       0       0       
      +0       0       0       0
  2981 ;;      Locals:         0       0       0       0       0       0       0       0       0       0       0       0       
      +0       0       0       0
  2982 ;;      Temps:          0       0       0       0       0       0       0       0       0       0       0       0       
      +0       0       0       0
  2983 ;;      Totals:         0       0       0       0       0       0       0       0       0       0       0       0       
      +0       0       0       0
  2984 ;;Total ram usage:        0 bytes
  2985 ;; Hardware stack levels used: 1
  2986 ;; This function calls:
  2987 ;;		Nothing
  2988 ;; This function is called by:
  2989 ;;		_ISR
  2990 ;; This function uses a non-reentrant model
  2991 ;;
  2992                           
  2993                           	psect	text26
  2994  000A3C                     __ptext26:
  2995                           	callstack 0
  2996  000A3C                     _IOC_ISR:
  2997                           	callstack 26
  2998  000A3C                     
  2999                           ;SensorBoard.c: 620:     pFlag |= 0b00100000;
  3000  000A3C  8A2E               	bsf	_pFlag^0,5,c
  3001  000A3E                     
  3002                           ;SensorBoard.c: 621:     IOCCF &= 0x00;
  3003  000A3E  0E00               	movlw	0
  3004  000A40  010F               	movlb	15	; () banked
  3005  000A42  6F1A               	movwf	26,b	;volatile
  3006  000A44                     
  3007                           ; BSR set to: 15
  3008                           ;SensorBoard.c: 622:     PIR0bits.IOCIF = 0;
  3009  000A44  010E               	movlb	14	; () banked
  3010  000A46  99CA               	bcf	202,4,b	;volatile
  3011  000A48                     
  3012                           ; BSR set to: 14
  3013  000A48  0012               	return		;funcret
  3014  000A4A                     __end_of_IOC_ISR:
  3015                           	callstack 0
  3016                           
  3017 ;; *************** function _I2C1_ISR *****************
  3018 ;; Defined at:
  3019 ;;		line 625 in file "SensorBoard.c"
  3020 ;; Parameters:    Size  Location     Type
  3021 ;;		None
  3022 ;; Auto vars:     Size  Location     Type
  3023 ;;		None
  3024 ;; Return value:  Size  Location     Type
  3025 ;;                  1    wreg      void 
  3026 ;; Registers used:
  3027 ;;		wreg, fsr2l, fsr2h, status,2, status,0
  3028 ;; Tracked objects:
  3029 ;;		On entry : 0/0
  3030 ;;		On exit  : 0/0
  3031 ;;		Unchanged: 0/0
  3032 ;; Data sizes:     COMRAM   BANK0   BANK1   BANK2   BANK3   BANK4   BANK5   BANK6   BANK7   BANK8   BANK9  BANK10  BANK1
      +1  BANK12  BANK13  BANK14
  3033 ;;      Params:         0       0       0       0       0       0       0       0       0       0       0       0       
      +0       0       0       0
  3034 ;;      Locals:         0       0       0       0       0       0       0       0       0       0       0       0       
      +0       0       0       0
  3035 ;;      Temps:          2       0       0       0       0       0       0       0       0       0       0       0       
      +0       0       0       0
  3036 ;;      Totals:         2       0       0       0       0       0       0       0       0       0       0       0       
      +0       0       0       0
  3037 ;;Total ram usage:        2 bytes
  3038 ;; Hardware stack levels used: 1
  3039 ;; This function calls:
  3040 ;;		Nothing
  3041 ;; This function is called by:
  3042 ;;		_ISR
  3043 ;; This function uses a non-reentrant model
  3044 ;;
  3045                           
  3046                           	psect	text27
  3047  000548                     __ptext27:
  3048                           	callstack 0
  3049  000548                     _I2C1_ISR:
  3050                           	callstack 26
  3051  000548                     
  3052                           ;SensorBoard.c: 648:     PIR3bits.SSP1IF = 0;
  3053  000548  010E               	movlb	14	; () banked
  3054  00054A  91CD               	bcf	205,0,b	;volatile
  3055                           
  3056                           ;SensorBoard.c: 649:     SSP1CON1bits.SSPOV = 0;
  3057  00054C  9C96               	bcf	150,6,c	;volatile
  3058                           
  3059                           ;SensorBoard.c: 652:     switch (I2C1Status)
  3060  00054E  EFF9  F002         	goto	i2l1553
  3061  000552                     i2l359:
  3062                           
  3063                           ; BSR set to: 14
  3064                           ;SensorBoard.c: 656:             if(SSP1STATbits.R_nW == 0) {I2C1Status = 1;} else {I2C1
      +                          Status = 2;}
  3065  000552  B495               	btfsc	149,2,c	;volatile
  3066  000554  EFAE  F002         	goto	i2u66_41
  3067  000558  EFB0  F002         	goto	i2u66_40
  3068  00055C                     i2u66_41:
  3069  00055C  EFB4  F002         	goto	i2l1529
  3070  000560                     i2u66_40:
  3071  000560                     
  3072                           ; BSR set to: 14
  3073  000560  0E01               	movlw	1
  3074  000562  6E27               	movwf	_I2C1Status^0,c
  3075  000564  EFB6  F002         	goto	i2l1531
  3076  000568                     i2l1529:
  3077                           
  3078                           ; BSR set to: 14
  3079  000568  0E02               	movlw	2
  3080  00056A  6E27               	movwf	_I2C1Status^0,c
  3081  00056C                     i2l1531:
  3082                           
  3083                           ; BSR set to: 14
  3084                           ;SensorBoard.c: 658:             if(I2C1Status == 2)
  3085  00056C  0E02               	movlw	2
  3086  00056E  1827               	xorwf	_I2C1Status^0,w,c
  3087  000570  A4D8               	btfss	status,2,c
  3088  000572  EFBD  F002         	goto	i2u67_41
  3089  000576  EFBF  F002         	goto	i2u67_40
  3090  00057A                     i2u67_41:
  3091  00057A  EFCC  F002         	goto	i2l362
  3092  00057E                     i2u67_40:
  3093  00057E                     
  3094                           ; BSR set to: 14
  3095                           ;SensorBoard.c: 659:             {;SensorBoard.c: 660:                 I2C1RxData = SSP1
      +                          BUF;
  3096  00057E  CF92 F026          	movff	3986,_I2C1RxData	;volatile
  3097  000582                     
  3098                           ; BSR set to: 14
  3099                           ;SensorBoard.c: 661:                 SSP1BUF = I2C1Registers[I2C1RegIndex];
  3100  000582  0E01               	movlw	low _I2C1Registers
  3101  000584  2428               	addwf	_I2C1RegIndex^0,w,c
  3102  000586  6ED9               	movwf	fsr2l,c
  3103  000588  6ADA               	clrf	fsr2h,c
  3104  00058A  0E00               	movlw	high _I2C1Registers
  3105  00058C  22DA               	addwfc	fsr2h,f,c
  3106  00058E  50DF               	movf	indf2,w,c
  3107  000590  6E92               	movwf	146,c	;volatile
  3108  000592                     
  3109                           ; BSR set to: 14
  3110                           ;SensorBoard.c: 662:                 I2C1RegIndex++;
  3111  000592  2A28               	incf	_I2C1RegIndex^0,f,c
  3112                           
  3113                           ;SensorBoard.c: 663:             }
  3114  000594  EFCE  F002         	goto	i2l363
  3115  000598                     i2l362:
  3116                           
  3117                           ; BSR set to: 14
  3118  000598  CF92 F026          	movff	3986,_I2C1RxData	;volatile
  3119  00059C                     i2l363:
  3120                           
  3121                           ; BSR set to: 14
  3122                           ;SensorBoard.c: 666:             SSP1CON1bits.CKP = 1;
  3123  00059C  8896               	bsf	150,4,c	;volatile
  3124                           
  3125                           ;SensorBoard.c: 667:             break;
  3126  00059E  EF12  F003         	goto	i2l372
  3127  0005A2                     i2l365:
  3128                           
  3129                           ; BSR set to: 14
  3130                           ;SensorBoard.c: 671:             if(SSP1STATbits.P) {I2C1Status = 0;} else
  3131  0005A2  A895               	btfss	149,4,c	;volatile
  3132  0005A4  EFD6  F002         	goto	i2u68_41
  3133  0005A8  EFD8  F002         	goto	i2u68_40
  3134  0005AC                     i2u68_41:
  3135  0005AC  EFDC  F002         	goto	i2l366
  3136  0005B0                     i2u68_40:
  3137  0005B0                     
  3138                           ; BSR set to: 14
  3139  0005B0  0E00               	movlw	0
  3140  0005B2  6E27               	movwf	_I2C1Status^0,c
  3141  0005B4  EF12  F003         	goto	i2l372
  3142  0005B8                     i2l366:
  3143                           
  3144                           ; BSR set to: 14
  3145                           ;SensorBoard.c: 672:             {;SensorBoard.c: 673:                 I2C1RegIndex = SS
      +                          P1BUF;
  3146  0005B8  CF92 F028          	movff	3986,_I2C1RegIndex	;volatile
  3147                           
  3148                           ;SensorBoard.c: 674:                 SSP1CON1bits.CKP = 1;
  3149  0005BC  8896               	bsf	150,4,c	;volatile
  3150  0005BE  EF12  F003         	goto	i2l372
  3151  0005C2                     i2l368:
  3152                           
  3153                           ; BSR set to: 14
  3154                           ;SensorBoard.c: 679:             if(SSP1STATbits.P == 1) {I2C1Status = 0; pFlag |= 0b000
      +                          00100;} else
  3155  0005C2  A895               	btfss	149,4,c	;volatile
  3156  0005C4  EFE6  F002         	goto	i2u69_41
  3157  0005C8  EFE8  F002         	goto	i2u69_40
  3158  0005CC                     i2u69_41:
  3159  0005CC  EFED  F002         	goto	i2l1545
  3160  0005D0                     i2u69_40:
  3161  0005D0                     
  3162                           ; BSR set to: 14
  3163  0005D0  0E00               	movlw	0
  3164  0005D2  6E27               	movwf	_I2C1Status^0,c
  3165  0005D4                     
  3166                           ; BSR set to: 14
  3167  0005D4  842E               	bsf	_pFlag^0,2,c
  3168  0005D6  EF12  F003         	goto	i2l372
  3169  0005DA                     i2l1545:
  3170                           
  3171                           ; BSR set to: 14
  3172                           ;SensorBoard.c: 680:             {;SensorBoard.c: 681:                 SSP1BUF = I2C1Reg
      +                          isters[I2C1RegIndex];
  3173  0005DA  0E01               	movlw	low _I2C1Registers
  3174  0005DC  2428               	addwf	_I2C1RegIndex^0,w,c
  3175  0005DE  6ED9               	movwf	fsr2l,c
  3176  0005E0  6ADA               	clrf	fsr2h,c
  3177  0005E2  0E00               	movlw	high _I2C1Registers
  3178  0005E4  22DA               	addwfc	fsr2h,f,c
  3179  0005E6  50DF               	movf	indf2,w,c
  3180  0005E8  6E92               	movwf	146,c	;volatile
  3181  0005EA                     
  3182                           ; BSR set to: 14
  3183                           ;SensorBoard.c: 682:                 I2C1RegIndex++;
  3184  0005EA  2A28               	incf	_I2C1RegIndex^0,f,c
  3185  0005EC                     
  3186                           ; BSR set to: 14
  3187                           ;SensorBoard.c: 683:                 SSP1CON1bits.CKP = 1;
  3188  0005EC  8896               	bsf	150,4,c	;volatile
  3189  0005EE  EF12  F003         	goto	i2l372
  3190  0005F2                     i2l1553:
  3191                           
  3192                           ; BSR set to: 14
  3193  0005F2  5027               	movf	_I2C1Status^0,w,c
  3194  0005F4  6E2F               	movwf	??_I2C1_ISR^0,c
  3195  0005F6  6A30               	clrf	(??_I2C1_ISR+1)^0,c
  3196                           
  3197                           ; Switch on 2 bytes has been partitioned into a top level switch of size 1, and 1 sub-sw
      +                          itches
  3198                           ; Switch size 1, requested type "simple"
  3199                           ; Number of cases is 1, Range of values is 0 to 0
  3200                           ; switch strategies available:
  3201                           ; Name         Instructions Cycles
  3202                           ; simple_byte            4     3 (average)
  3203                           ;	Chosen strategy is simple_byte
  3204  0005F8  5030               	movf	(??_I2C1_ISR+1)^0,w,c
  3205  0005FA  0A00               	xorlw	0	; case 0
  3206  0005FC  B4D8               	btfsc	status,2,c
  3207  0005FE  EF03  F003         	goto	i2l2049
  3208  000602  EF12  F003         	goto	i2l372
  3209  000606                     i2l2049:
  3210                           
  3211                           ; BSR set to: 14
  3212                           ; Switch size 1, requested type "simple"
  3213                           ; Number of cases is 3, Range of values is 0 to 2
  3214                           ; switch strategies available:
  3215                           ; Name         Instructions Cycles
  3216                           ; simple_byte           10     6 (average)
  3217                           ;	Chosen strategy is simple_byte
  3218  000606  502F               	movf	??_I2C1_ISR^0,w,c
  3219  000608  0A00               	xorlw	0	; case 0
  3220  00060A  B4D8               	btfsc	status,2,c
  3221  00060C  EFA9  F002         	goto	i2l359
  3222  000610  0A01               	xorlw	1	; case 1
  3223  000612  B4D8               	btfsc	status,2,c
  3224  000614  EFD1  F002         	goto	i2l365
  3225  000618  0A03               	xorlw	3	; case 2
  3226  00061A  B4D8               	btfsc	status,2,c
  3227  00061C  EFE1  F002         	goto	i2l368
  3228  000620  EF12  F003         	goto	i2l372
  3229  000624                     i2l372:
  3230                           
  3231                           ; BSR set to: 14
  3232  000624  0012               	return		;funcret
  3233  000626                     __end_of_I2C1_ISR:
  3234                           	callstack 0
  3235  0000                     
  3236                           	psect	rparam
  3237  0000                     
  3238                           	psect	temp
  3239  00003D                     btemp:
  3240                           	callstack 0
  3241  00003D                     	ds	1
  3242  0000                     int$flags	set	btemp
  3243  0000                     wtemp8	set	btemp+1
  3244  0000                     ttemp5	set	btemp+1
  3245  0000                     ttemp6	set	btemp+4
  3246  0000                     ttemp7	set	btemp+8
  3247                           
  3248                           	psect	idloc
  3249                           
  3250                           ;Config register IDLOC0 @ 0x200000
  3251                           ;	unspecified, using default values
  3252  200000                     	org	2097152
  3253  200000  0FFF               	dw	4095
  3254                           
  3255                           ;Config register IDLOC1 @ 0x200002
  3256                           ;	unspecified, using default values
  3257  200002                     	org	2097154
  3258  200002  0FFF               	dw	4095
  3259                           
  3260                           ;Config register IDLOC2 @ 0x200004
  3261                           ;	unspecified, using default values
  3262  200004                     	org	2097156
  3263  200004  0FFF               	dw	4095
  3264                           
  3265                           ;Config register IDLOC3 @ 0x200006
  3266                           ;	unspecified, using default values
  3267  200006                     	org	2097158
  3268  200006  0FFF               	dw	4095
  3269                           
  3270                           ;Config register IDLOC4 @ 0x200008
  3271                           ;	unspecified, using default values
  3272  200008                     	org	2097160
  3273  200008  0FFF               	dw	4095
  3274                           
  3275                           ;Config register IDLOC5 @ 0x20000A
  3276                           ;	unspecified, using default values
  3277  20000A                     	org	2097162
  3278  20000A  0FFF               	dw	4095
  3279                           
  3280                           ;Config register IDLOC6 @ 0x20000C
  3281                           ;	unspecified, using default values
  3282  20000C                     	org	2097164
  3283  20000C  0FFF               	dw	4095
  3284                           
  3285                           ;Config register IDLOC7 @ 0x20000E
  3286                           ;	unspecified, using default values
  3287  20000E                     	org	2097166
  3288  20000E  0FFF               	dw	4095
  3289                           
  3290                           	psect	config
  3291                           
  3292                           ;Config register CONFIG1L @ 0x300000
  3293                           ;	External Oscillator mode Selection bits
  3294                           ;	FEXTOSC = OFF, Oscillator not enabled
  3295                           ;	Power-up default value for COSC bits
  3296                           ;	RSTOSC = HFINTOSC_64MHZ, HFINTOSC with HFFRQ = 64 MHz and CDIV = 1:1
  3297  300000                     	org	3145728
  3298  300000  8C                 	db	140
  3299                           
  3300                           ;Config register CONFIG1H @ 0x300001
  3301                           ;	Clock Out Enable bit
  3302                           ;	CLKOUTEN = OFF, CLKOUT function is disabled
  3303                           ;	Clock Switch Enable bit
  3304                           ;	CSWEN = ON, Writing to NOSC and NDIV is allowed
  3305                           ;	Fail-Safe Clock Monitor Enable bit
  3306                           ;	FCMEN = ON, Fail-Safe Clock Monitor enabled
  3307  300001                     	org	3145729
  3308  300001  FF                 	db	255
  3309                           
  3310                           ;Config register CONFIG2L @ 0x300002
  3311                           ;	Master Clear Enable bit
  3312                           ;	MCLRE = EXTMCLR, If LVP = 0, MCLR pin is MCLR; If LVP = 1, RE3 pin function is MCLR
  3313                           ;	Power-up Timer Enable bit
  3314                           ;	PWRTE = OFF, Power up timer disabled
  3315                           ;	Low-power BOR enable bit
  3316                           ;	LPBOREN = OFF, ULPBOR disabled
  3317                           ;	Brown-out Reset Enable bits
  3318                           ;	BOREN = OFF, Brown-out Reset disabled
  3319  300002                     	org	3145730
  3320  300002  3F                 	db	63
  3321                           
  3322                           ;Config register CONFIG2H @ 0x300003
  3323                           ;	Brown Out Reset Voltage selection bits
  3324                           ;	BORV = VBOR_2P45, Brown-out Reset Voltage (VBOR) set to 2.45V
  3325                           ;	ZCD Disable bit
  3326                           ;	ZCD = OFF, ZCD disabled. ZCD can be enabled by setting the ZCDSEN bit of ZCDCON
  3327                           ;	PPSLOCK bit One-Way Set Enable bit
  3328                           ;	PPS1WAY = ON, PPSLOCK bit can be cleared and set only once; PPS registers remain locke
      +                          d after one clear/set cycle
  3329                           ;	Stack Full/Underflow Reset Enable bit
  3330                           ;	STVREN = ON, Stack full/underflow will cause Reset
  3331                           ;	Debugger Enable bit
  3332                           ;	DEBUG = OFF, Background debugger disabled
  3333                           ;	Extended Instruction Set Enable bit
  3334                           ;	XINST = OFF, Extended Instruction Set and Indexed Addressing Mode disabled
  3335  300003                     	org	3145731
  3336  300003  FF                 	db	255
  3337                           
  3338                           ;Config register CONFIG3L @ 0x300004
  3339                           ;	WDT Period Select bits
  3340                           ;	WDTCPS = WDTCPS_31, Divider ratio 1:65536; software control of WDTPS
  3341                           ;	WDT operating mode
  3342                           ;	WDTE = OFF, WDT Disabled
  3343  300004                     	org	3145732
  3344  300004  9F                 	db	159
  3345                           
  3346                           ;Config register CONFIG3H @ 0x300005
  3347                           ;	WDT Window Select bits
  3348                           ;	WDTCWS = WDTCWS_7, window always open (100%); software control; keyed access not requi
      +                          red
  3349                           ;	WDT input clock selector
  3350                           ;	WDTCCS = SC, Software Control
  3351  300005                     	org	3145733
  3352  300005  FF                 	db	255
  3353                           
  3354                           ;Config register CONFIG4L @ 0x300006
  3355                           ;	Write Protection Block 0
  3356                           ;	WRT0 = OFF, Block 0 (000800-003FFFh) not write-protected
  3357                           ;	Write Protection Block 1
  3358                           ;	WRT1 = OFF, Block 1 (004000-007FFFh) not write-protected
  3359                           ;	Write Protection Block 2
  3360                           ;	WRT2 = OFF, Block 2 (008000-00BFFFh) not write-protected
  3361                           ;	Write Protection Block 3
  3362                           ;	WRT3 = OFF, Block 3 (00C000-00FFFFh) not write-protected
  3363  300006                     	org	3145734
  3364  300006  FF                 	db	255
  3365                           
  3366                           ;Config register CONFIG4H @ 0x300007
  3367                           ;	Configuration Register Write Protection bit
  3368                           ;	WRTC = OFF, Configuration registers (300000-30000Bh) not write-protected
  3369                           ;	Boot Block Write Protection bit
  3370                           ;	WRTB = OFF, Boot Block (000000-0007FFh) not write-protected
  3371                           ;	Data EEPROM Write Protection bit
  3372                           ;	WRTD = OFF, Data EEPROM not write-protected
  3373                           ;	Scanner Enable bit
  3374                           ;	SCANE = ON, Scanner module is available for use, SCANMD bit can control the module
  3375                           ;	Low Voltage Programming Enable bit
  3376                           ;	LVP = ON, Low voltage programming enabled. MCLR/VPP pin function is MCLR. MCLRE config
      +                          uration bit is ignored
  3377  300007                     	org	3145735
  3378  300007  FF                 	db	255
  3379                           
  3380                           ;Config register CONFIG5L @ 0x300008
  3381                           ;	UserNVM Program Memory Code Protection bit
  3382                           ;	CP = OFF, UserNVM code protection disabled
  3383                           ;	DataNVM Memory Code Protection bit
  3384                           ;	CPD = OFF, DataNVM code protection disabled
  3385  300008                     	org	3145736
  3386  300008  FF                 	db	255
  3387                           
  3388                           ;Config register CONFIG5H @ 0x300009
  3389                           ;	unspecified, using default values
  3390  300009                     	org	3145737
  3391  300009  FF                 	db	255
  3392                           
  3393                           ;Config register CONFIG6L @ 0x30000A
  3394                           ;	Table Read Protection Block 0
  3395                           ;	EBTR0 = OFF, Block 0 (000800-003FFFh) not protected from table reads executed in other
      +                           blocks
  3396                           ;	Table Read Protection Block 1
  3397                           ;	EBTR1 = OFF, Block 1 (004000-007FFFh) not protected from table reads executed in other
      +                           blocks
  3398                           ;	Table Read Protection Block 2
  3399                           ;	EBTR2 = OFF, Block 2 (008000-00BFFFh) not protected from table reads executed in other
      +                           blocks
  3400                           ;	Table Read Protection Block 3
  3401                           ;	EBTR3 = OFF, Block 3 (00C000-00FFFFh) not protected from table reads executed in other
      +                           blocks
  3402  30000A                     	org	3145738
  3403  30000A  FF                 	db	255
  3404                           
  3405                           ;Config register CONFIG6H @ 0x30000B
  3406                           ;	Boot Block Table Read Protection bit
  3407                           ;	EBTRB = OFF, Boot Block (000000-0007FFh) not protected from table reads executed in ot
      +                          her blocks
  3408  30000B                     	org	3145739
  3409  30000B  FF                 	db	255
  3410                           tosu	equ	0xFFF
  3411                           tosh	equ	0xFFE
  3412                           tosl	equ	0xFFD
  3413                           stkptr	equ	0xFFC
  3414                           pclatu	equ	0xFFB
  3415                           pclath	equ	0xFFA
  3416                           pcl	equ	0xFF9
  3417                           tblptru	equ	0xFF8
  3418                           tblptrh	equ	0xFF7
  3419                           tblptrl	equ	0xFF6
  3420                           tablat	equ	0xFF5
  3421                           prodh	equ	0xFF4
  3422                           prodl	equ	0xFF3
  3423                           indf0	equ	0xFEF
  3424                           postinc0	equ	0xFEE
  3425                           postdec0	equ	0xFED
  3426                           preinc0	equ	0xFEC
  3427                           plusw0	equ	0xFEB
  3428                           fsr0h	equ	0xFEA
  3429                           fsr0l	equ	0xFE9
  3430                           wreg	equ	0xFE8
  3431                           indf1	equ	0xFE7
  3432                           postinc1	equ	0xFE6
  3433                           postdec1	equ	0xFE5
  3434                           preinc1	equ	0xFE4
  3435                           plusw1	equ	0xFE3
  3436                           fsr1h	equ	0xFE2
  3437                           fsr1l	equ	0xFE1
  3438                           bsr	equ	0xFE0
  3439                           indf2	equ	0xFDF
  3440                           postinc2	equ	0xFDE
  3441                           postdec2	equ	0xFDD
  3442                           preinc2	equ	0xFDC
  3443                           plusw2	equ	0xFDB
  3444                           fsr2h	equ	0xFDA
  3445                           fsr2l	equ	0xFD9
  3446                           status	equ	0xFD8

Data Sizes:
    Strings     0
    Constant    0
    Data        0
    BSS         46
    Persistent  0
    Stack       0

Auto Spaces:
    Space          Size  Autos    Used
    COMRAM           94     14      60
    BANK0           160      0       0
    BANK1           256      0       0
    BANK2           256      0       0
    BANK3           256      0       0
    BANK4           256      0       0
    BANK5           256      0       0
    BANK6           256      0       0
    BANK7           256      0       0
    BANK8           256      0       0
    BANK9           256      0       0
    BANK10          256      0       0
    BANK11          256      0       0
    BANK12          256      0       0
    BANK13          256      0       0
    BANK14          136      0       0

Pointer List with Targets:

    None.

Critical Paths under _main in COMRAM

    _main->_RequestData
    _StartStatus->_SSP1Config
    _SaveSensor->_I2C2RequestData
    _I2C2Scan->_I2C2TransmitAddress
    _RequestData->_I2C2RequestData
    _EraseSensors->_WriteToEEPROM

Critical Paths under _ISR in COMRAM

    _ISR->_I2C1_ISR

Critical Paths under _main in BANK0

    None.

Critical Paths under _ISR in BANK0

    None.

Critical Paths under _main in BANK1

    None.

Critical Paths under _ISR in BANK1

    None.

Critical Paths under _main in BANK2

    None.

Critical Paths under _ISR in BANK2

    None.

Critical Paths under _main in BANK3

    None.

Critical Paths under _ISR in BANK3

    None.

Critical Paths under _main in BANK4

    None.

Critical Paths under _ISR in BANK4

    None.

Critical Paths under _main in BANK5

    None.

Critical Paths under _ISR in BANK5

    None.

Critical Paths under _main in BANK6

    None.

Critical Paths under _ISR in BANK6

    None.

Critical Paths under _main in BANK7

    None.

Critical Paths under _ISR in BANK7

    None.

Critical Paths under _main in BANK8

    None.

Critical Paths under _ISR in BANK8

    None.

Critical Paths under _main in BANK9

    None.

Critical Paths under _ISR in BANK9

    None.

Critical Paths under _main in BANK10

    None.

Critical Paths under _ISR in BANK10

    None.

Critical Paths under _main in BANK11

    None.

Critical Paths under _ISR in BANK11

    None.

Critical Paths under _main in BANK12

    None.

Critical Paths under _ISR in BANK12

    None.

Critical Paths under _main in BANK13

    None.

Critical Paths under _ISR in BANK13

    None.

Critical Paths under _main in BANK14

    None.

Critical Paths under _ISR in BANK14

    None.

Call Graph Tables:

 ---------------------------------------------------------------------------------
 (Depth) Function   	        Calls       Base Space   Used Autos Params    Refs
 ---------------------------------------------------------------------------------
 (0) _main                                                 0     0      0    2627
                       _EraseSensors
                          _HandleIOC
                         _HandleTMR2
                         _HandleTMR4
                          _IntConfig
                          _NVMConfig
                        _PortsConfig
                        _RequestData
                      _SearchProcess
                        _StartStatus
 ---------------------------------------------------------------------------------
 (1) _StartStatus                                          1     1      0      90
                                              5 COMRAM     1     1      0
                          _IOCConfig
                         _SSP1Config
                         _SSP2Config
                         _TMR2Config
 ---------------------------------------------------------------------------------
 (2) _TMR2Config                                           0     0      0       0
 ---------------------------------------------------------------------------------
 (2) _SSP2Config                                           0     0      0       0
 ---------------------------------------------------------------------------------
 (2) _SSP1Config                                           1     1      0      30
                                              4 COMRAM     1     1      0
 ---------------------------------------------------------------------------------
 (2) _IOCConfig                                            0     0      0       0
 ---------------------------------------------------------------------------------
 (1) _SearchProcess                                        0     0      0    1060
                           _I2C2Scan
                         _SaveSensor
 ---------------------------------------------------------------------------------
 (2) _SaveSensor                                           0     0      0    1045
                    _I2C2RequestData
                           _I2C2Stop
                _I2C2TransmitAddress
                   _I2C2TransmitData
                         _ReadEEPROM
                      _WriteToEEPROM
 ---------------------------------------------------------------------------------
 (2) _I2C2Scan                                             0     0      0      15
                           _I2C2Stop
                _I2C2TransmitAddress
 ---------------------------------------------------------------------------------
 (1) _RequestData                                          6     6      0     985
                                              8 COMRAM     6     6      0
                    _I2C2RequestData
                           _I2C2Stop
                _I2C2TransmitAddress
                   _I2C2TransmitData
                         _ReadEEPROM
 ---------------------------------------------------------------------------------
 (3) _ReadEEPROM                                           1     1      0      15
                                              4 COMRAM     1     1      0
 ---------------------------------------------------------------------------------
 (3) _I2C2TransmitData                                     1     1      0      15
                                              4 COMRAM     1     1      0
 ---------------------------------------------------------------------------------
 (3) _I2C2TransmitAddress                                  1     1      0      15
                                              4 COMRAM     1     1      0
 ---------------------------------------------------------------------------------
 (3) _I2C2Stop                                             0     0      0       0
 ---------------------------------------------------------------------------------
 (3) _I2C2RequestData                                      4     3      1     576
                                              4 COMRAM     4     3      1
 ---------------------------------------------------------------------------------
 (1) _PortsConfig                                          0     0      0       0
 ---------------------------------------------------------------------------------
 (1) _NVMConfig                                            0     0      0       0
 ---------------------------------------------------------------------------------
 (1) _IntConfig                                            0     0      0       0
 ---------------------------------------------------------------------------------
 (1) _HandleTMR4                                           0     0      0       0
 ---------------------------------------------------------------------------------
 (1) _HandleTMR2                                           0     0      0       0
 ---------------------------------------------------------------------------------
 (1) _HandleIOC                                            0     0      0       0
 ---------------------------------------------------------------------------------
 (1) _EraseSensors                                         1     1      0     492
                                              6 COMRAM     1     1      0
                      _WriteToEEPROM
 ---------------------------------------------------------------------------------
 (3) _WriteToEEPROM                                        2     1      1     424
                                              4 COMRAM     2     1      1
 ---------------------------------------------------------------------------------
 Estimated maximum stack depth 3
 ---------------------------------------------------------------------------------
 (Depth) Function   	        Calls       Base Space   Used Autos Params    Refs
 ---------------------------------------------------------------------------------
 (4) _ISR                                                  2     2      0       0
                                              2 COMRAM     2     2      0
                           _I2C1_ISR
                            _IOC_ISR
                           _TMR2_ISR
                           _TMR4_ISR
 ---------------------------------------------------------------------------------
 (5) _TMR4_ISR                                             0     0      0       0
 ---------------------------------------------------------------------------------
 (5) _TMR2_ISR                                             0     0      0       0
 ---------------------------------------------------------------------------------
 (5) _IOC_ISR                                              0     0      0       0
 ---------------------------------------------------------------------------------
 (5) _I2C1_ISR                                             2     2      0       0
                                              0 COMRAM     2     2      0
 ---------------------------------------------------------------------------------
 Estimated maximum stack depth 5
 ---------------------------------------------------------------------------------

 Call Graph Graphs:

 _main (ROOT)
   _EraseSensors
     _WriteToEEPROM
   _HandleIOC
   _HandleTMR2
   _HandleTMR4
   _IntConfig
   _NVMConfig
   _PortsConfig
   _RequestData
     _I2C2RequestData
     _I2C2Stop
     _I2C2TransmitAddress
     _I2C2TransmitData
     _ReadEEPROM
   _SearchProcess
     _I2C2Scan
       _I2C2Stop
       _I2C2TransmitAddress
     _SaveSensor
       _I2C2RequestData
       _I2C2Stop
       _I2C2TransmitAddress
       _I2C2TransmitData
       _ReadEEPROM
       _WriteToEEPROM
   _StartStatus
     _IOCConfig
     _SSP1Config
     _SSP2Config
     _TMR2Config

 _ISR (ROOT)
   _I2C1_ISR
   _IOC_ISR
   _TMR2_ISR
   _TMR4_ISR

 Address spaces:
Name               Size   Autos  Total    Cost      Usage
BIGRAM             E87      0       0      57        0.0%
EEDATA             400      0       0       0        0.0%
BITBANK13          100      0       0      30        0.0%
BANK13             100      0       0      31        0.0%
BITBANK12          100      0       0      28        0.0%
BANK12             100      0       0      29        0.0%
BITBANK11          100      0       0      26        0.0%
BANK11             100      0       0      27        0.0%
BITBANK10          100      0       0      24        0.0%
BANK10             100      0       0      25        0.0%
BITBANK9           100      0       0      22        0.0%
BANK9              100      0       0      23        0.0%
BITBANK8           100      0       0      20        0.0%
BANK8              100      0       0      21        0.0%
BITBANK7           100      0       0      18        0.0%
BANK7              100      0       0      19        0.0%
BITBANK6           100      0       0      16        0.0%
BANK6              100      0       0      17        0.0%
BITBANK5           100      0       0      14        0.0%
BANK5              100      0       0      15        0.0%
BITBANK4           100      0       0      12        0.0%
BANK4              100      0       0      13        0.0%
BITBANK3           100      0       0      10        0.0%
BANK3              100      0       0      11        0.0%
BITBANK2           100      0       0       8        0.0%
BANK2              100      0       0       9        0.0%
BITBANK1           100      0       0       6        0.0%
BANK1              100      0       0       7        0.0%
BITBANK0            A0      0       0       4        0.0%
BANK0               A0      0       0       5        0.0%
BITBANK14           88      0       0      32        0.0%
BANK14              88      0       0      33        0.0%
BITCOMRAM           5E      0       0       0        0.0%
COMRAM              5E      E      3C       1       63.8%
BITBIGSFRhhhlhh     57      0       0      41        0.0%
BITBIGSFRhhhhhh     31      0       0      35        0.0%
BITBIGSFRhlhhh      27      0       0      47        0.0%
BITBIGSFRhhhhhl     1D      0       0      37        0.0%
BITBIGSFRhll        16      0       0      51        0.0%
BITBIGSFRhhhll      10      0       0      45        0.0%
BITBIGSFRhhhhhh      D      0       0      34        0.0%
BITBIGSFRhlhll       9      0       0      50        0.0%
BITBIGSFRlhhh        8      0       0      52        0.0%
BITBIGSFRhhhlhl      7      0       0      44        0.0%
BITBIGSFRhhl         6      0       0      46        0.0%
BITBIGSFRhhhlhh      4      0       0      43        0.0%
BITBIGSFRhhhlhh      4      0       0      42        0.0%
BITBIGSFRhlhlhh      3      0       0      48        0.0%
BITBIGSFRhhhhhl      2      0       0      38        0.0%
BITBIGSFRhlhlhl      2      0       0      49        0.0%
BITBIGSFRhhhhhl      2      0       0      39        0.0%
BITBIGSFRll          2      0       0      55        0.0%
BITBIGSFRlhhl        1      0       0      53        0.0%
BITBIGSFRhhhhhl      1      0       0      36        0.0%
BITBIGSFRhhhhl       1      0       0      40        0.0%
BITBIGSFRlhl         1      0       0      54        0.0%
BIGSFR               0      0       0     200        0.0%
BITSFR_2             0      0       0     200        0.0%
SFR_2                0      0       0     200        0.0%
BITSFR_1             0      0       0     200        0.0%
SFR_1                0      0       0     200        0.0%
BITSFR               0      0       0     200        0.0%
SFR                  0      0       0     200        0.0%
STACK                0      0       0       2        0.0%
NULL                 0      0       0       0        0.0%
ABS                  0      0      3C      56        0.0%
DATA                 0      0      3C       3        0.0%
CODE                 0      0       0       0        0.0%


Microchip Technology PIC18 Macro Assembler V2.36 build 20220127204148 
Symbol Table                                                                                   Fri Mar 18 13:18:19 2022

                         _ID 001E                           u20 0792                           u21 078E  
                         u30 07A4                           u31 07A0                           u40 07B2  
                         u41 07AE                           u50 07C2                           u51 07BE  
                         u60 0876                           u61 0872                           u70 0884  
                         u71 0880                           u80 0894                           u81 0890  
             ??_EraseSensors 0035        ??_I2C2TransmitAddress 0033                          l201 07B4  
                        l211 0886                          l204 07CA                          l221 044A  
                        l302 0A64                          l230 0482                          l222 044E  
                        l214 089C                          l310 089E                          l207 0866  
                        l320 0994                          l240 04BE                          l232 0490  
                        l224 045C                          l241 04C6                          l233 0498  
                        l225 0480                          l209 0876                          l313 08D4  
                        l250 0500                          l226 046C                          l218 0438  
                        l162 0A2C                          l307 096C                          l171 09D6  
                        l251 0502                          l219 043C                          l331 0370  
                        l315 08D8                          l244 04D8                          l260 0A1A  
                        l332 0392                          l245 04DC                          l237 04AC  
                        l229 0546                          l333 03B4                          l165 09B8  
                        l182 0A50                          l238 04B0                          l326 041A  
                        l174 083A                          l159 071C                          l247 04EA  
                        l191 0A3A                          l175 083E                          l248 04F2  
                        l280 0124                          l176 085E                          l185 0930  
                        l257 0A0C                          l329 042C                          l265 0914  
                        l281 0146                          l194 0784                          l266 0902  
                        l282 0168                          l346 077C                          l187 093E  
                        l339 0430                          l275 02C2                          l179 0A06  
                        l188 0942                          l197 0796                          l199 07A4  
                        l279 0102                          l299 0816                          u200 0A1A  
                        u201 0A16                          u210 0832                          u211 082E  
                        u220 08F4                          u221 08F0                          u230 0912  
                        u231 090E                          u450 07DE                          u451 07DA  
                        u460 07F8                          _ISR 0008                          u461 07F4  
                        u470 0812                          u471 080E                          u800 093E  
                        u480 0952                          u640 072C                          u801 093A  
                        u481 094E                          u641 0728                          u490 0966  
                        u810 044A                          u650 076C                          u491 0962  
                        u811 0446                          u651 0768                          u900 0500  
                        u820 045C                          u901 04FC                          u821 0458  
                        u910 0510                          u830 046A                          u911 050C  
                        u831 0466                          u840 047A                          u920 008E  
                        u841 0476                          u921 008A                          u850 0490  
                        u930 00AA                          u851 048C                          u931 00A6  
                        u860 04A6                          u940 00C0                          u861 04A2  
                        u941 00BC                          u870 04BE                          u950 00DA  
                        u871 04BA                          u951 00D6                          u880 04D4  
                        u960 00FE                          u881 04D0                          u961 00FA  
                        u890 04EA                          u970 0120                          u891 04E6  
                        u971 011C                          u980 0142                          u981 013E  
                        u990 0164                          u991 0160                          wreg 000FE8  
                       ?_ISR 002F              __end_of_IOC_ISR 0A4A             __end_of_I2C1_ISR 0626  
                       l1103 07C8                         l1111 0894                         l1201 0856  
                       l1115 089A                         l1107 0862                         l1203 085A  
                       l1211 0A02                         l1109 0884                         l1221 08F8  
                       l1205 085C                         l1213 0A04                         l1215 08DA  
                       l1207 09F2                         l1401 0966                         l1161 0A08  
                       l1217 08DE                         l1209 0A00             __end_of_I2C2Scan 0916  
                       l1403 0968                         l1219 08F4                         l1227 08FE  
                       l1163 0A1C                         l1171 09AE                         l1093 0780  
                       l1085 0A30                         l1229 0912                         l1165 0A26  
                       l1181 0818                         l1173 09B0                         l1351 06B6  
                       l2047 0528                         l1095 0792                         l1087 0A36  
                       l1167 0A2A                         l1191 084C                         l1183 0822  
                       l1175 09B2                         l1503 0748                         l1361 071A  
                       l1353 06C0                         l1097 07B2                         l1089 0A38  
                       l1193 084E                         l1185 0832                         l1177 09B6  
                       l1169 0996                         l1505 0758                         l1363 09BA  
                       l1371 0A4A                         l1355 06EE                         l1099 07C2  
                       l1195 0850                         l1187 0842                         l1179 0818  
                       l1507 075A                         l1701 092E                         l1381 07E6  
                       l1365 09D0                         l1373 0A4E                         l1357 0716  
                       l1197 0852                         l1189 084A                         l1509 076C  
                       l1383 07F8                         l1375 07CC                         l1391 0A62  
                       l1367 09D2                         l1359 0718                         l1711 04A6  
                       l1703 0434                         l1199 0854                         l1393 0944  
                       l1385 07FC                         l1377 07DE                         l1369 09D4  
                       l1705 046A                         l1395 0952                         l1387 0802  
                       l1379 07E4                         l1707 047A                         l1811 01BC  
                       l1491 073C                         l1397 0954                         l1389 0812  
                       l1901 0306                         l1821 0208                         l1813 01C0  
                       l1805 01A0                         l1493 0740                         l1399 0958  
                       l1903 030E                         l1831 0238                         l1823 0212  
                       l1815 01D2                         l1495 0744                         l1487 071E  
                       l1737 0514                         l1913 034C                         l1905 0318  
                       l1825 021E                         l1817 01E4                         l1761 00C4  
                       l1753 0094                         l1745 0072                         l1497 0744  
                       l1489 072C                         l1691 091A                         l1931 03DA  
                       l1923 0396                         l1915 0350                         l1851 02AA  
                       l1843 026C                         l1819 01F6                         l1755 00AA  
                       l1747 007A                         l1693 0920                         l1941 0404  
                       l1933 03DC                         l1909 0332                         l1853 02B4  
                       l1837 0252                         l1845 0274                         l1781 0128  
                       l1749 008E                         l1695 0924                         l1943 0416  
                       l1935 03E4                         l1927 03B8                         l1919 0374  
                       l1847 0286                         l1775 0106                         l1767 00DE  
                       l1863 089E                         l1951 0636                         l1697 0926  
                       l1689 0918                         l1881 0976                         l1937 03E6  
                       l1929 03CA                         l1849 0298                         l1793 016C  
                       l1769 00E2                         l1865 08B2                         l1961 065C  
                       l1953 0644                         l1945 0626                         l1699 092A  
                       l1883 0980                         l1875 096E                         l1939 0402  
                       l1859 02C0                         l1787 014A                         l1867 08BA  
                       l1971 0680                         l1963 065E                         l1955 0648  
                       l1947 062E                         l1885 0982                         l1893 02D0  
                       l1869 08CE                         l1981 069A                         l1973 0684  
                       l1965 066C                         l1957 064A                         l1949 0632  
                       l1895 02E6                         l1887 02C4                         l1799 0186  
                       l1983 06A8                         l1975 0686                         l1967 0670  
                       l1959 0658                         l1897 02EA                         l1985 06AC  
                       l1977 0694                         l1969 0672                         l1899 02FE  
                       l1979 0698             __end_of_I2C2Stop 0A1C                         u1000 0182  
                       u1001 017E                         u1010 019C                         u1011 0198  
                       u1100 0286                         u1020 01B8                         u1101 0282  
                       u1021 01B4                         u1110 0298                         u1030 01D2  
                       u1111 0294                         u1031 01CE                         u1200 036C  
                       u1120 02AA                         u1040 01E4                         u1201 0368  
                       u1121 02A6                         u1041 01E0                         u1210 038E  
                       u1050 01F6                         u1130 08B2                         u1211 038A  
                       u1051 01F2                         u1131 08AE                         u1220 03B0  
                       u1060 0208                         u1140 08CE                         u1300 0680  
                       u1221 03AC                         u1061 0204                         u1141 08CA  
                       u1301 067C                         u1150 0994                         u1230 03CA  
                       u1070 0234                         u1310 0694                         u1151 0990  
                       u1231 03C6                         u1071 0230                         u1311 0690  
                       u1240 03DA                         u1160 02E6                         u1080 024E  
                       u1320 06A8                         u1241 03D6                         u1161 02E2  
                       u1081 024A                         u1321 06A4                         u1250 0416  
                       u1170 02FE                         u1090 0268                         u1251 0412  
                       u1171 02FA                         u1091 0264                         u1260 042C  
                       u1180 032E                         u1261 0428                         u1181 032A  
                       _LATA 000F83                         u1190 0348                         u1270 0644  
                       _LATB 000F84                         u1191 0344                         u1271 0640  
                       _LATC 000F85                         u1280 0658                         _LATD 000F86  
                       u1281 0654                         u1290 066C                         u1291 0668  
                       _T2PR 000FBC                         _T4PR 000FB6                         _PIR1 000ECB  
                       _PIR2 000ECC                         _PIR3 000ECD                         _PIR4 000ECE  
                       _PIR5 000ECF                         _main 0626                         fsr2h 000FDA  
                       indf1 000FE7                         indf2 000FDF                         fsr1l 000FE1  
                       fsr2l 000FD9                         btemp 003D                         start 006E  
               ___param_bank 000000                   _HandleTMR2 07CC                   _HandleTMR4 0A62  
                      ??_ISR 0031      I2C2RequestData@readAddr 0033      I2C2RequestData@function 0036  
                      ?_main 002F      I2C2TransmitAddress@addr 0033                        _T2HLT 000FBE  
                      _IOCCF 000F1A                        _IOCCN 000F1B                        _IOCCP 000F1C  
                      _T4HLT 000FB8                        _T2RST 000FC0                        _T4RST 000FBA  
                      i2l352 0A58                        i2l362 0598                        i2l363 059C  
                      i2l355 0A48                        i2l372 0624                        i2l365 05A2  
                      i2l349 0A60                        i2l381 0062                        i2l366 05B8  
                      i2l359 0552                        i2l368 05C2                        _PORTB 000F8E  
                      _PORTC 000F8F                        _TRISA 000F88                        _TRISB 000F89  
                      _TRISC 000F8A                        _TRISD 000F8B                  ?_TMR2Config 002F  
           __end_of_TMR2_ISR 0A62             __end_of_TMR4_ISR 0A5A                        _pFlag 002E  
                ?_SSP1Config 002F                  ?_SSP2Config 002F                   _ReadEEPROM 0A2E  
                      ttemp5 003E                        ttemp6 0041                        ttemp7 0045  
                      status 000FD8                        wtemp8 003E              __initialization 09D8  
               __end_of_main 06B6     RequestData@distanceBytes 0038                       ??_main 003D  
              __activetblptr 000002                    ??_IOC_ISR 002F            __end_of_IOCConfig 0A2E  
          ReadEEPROM@address 0033                _WriteToEEPROM 0916                       _ANSELA 000F11  
                     _ANSELB 000F19                       _ANSELC 000F21                       _ANSELD 000F26  
          ??_I2C2RequestData 0034                   _SaveSensor 0072                       _RC0PPS 000EF7  
                     _RC1PPS 000EF8                       _RD0PPS 000EFF                       _RD1PPS 000F00  
                     i2l1511 0A5A                       i2l2049 0606                       i2l1521 0A3E  
                     i2l1513 0A5C                       i2l1531 056C                       i2l1523 0A44  
                     i2l1515 0A52                       i2l1541 05D0                       i2l1533 057E  
                     i2l1525 0548                       i2l1517 0A54                       i2l1543 05D4  
                     i2l1535 0582                       i2l1527 0560                       i2l1519 0A3C  
                     i2l1545 05DA                       i2l1537 0592                       i2l1529 0568  
                     i2l1553 05F2                       i2l1547 05EA                       i2l1539 05B0  
                     i2l1571 0012                       i2l1549 05EC                       i2l1581 004A  
                     i2l1573 0022                       i2l1583 004E                       i2l1575 0026  
                     i2l1585 005E                       i2l1577 0036                       i2l1579 003A  
                     _NVMADR 000F7E                       _NVMDAT 000F80         __end_of_EraseSensors 0996  
         SSP1Config@slaveAdd 0033                ??_RequestData 0037                  ?_HandleTMR2 002F  
                ?_HandleTMR4 002F            __end_of_NVMConfig 0A52                    ?_I2C1_ISR 002F  
                     clear_0 09DE                    ?_I2C2Scan 002F               StartStatus@ptr 0034  
                     isa$std 000001                    ?_I2C2Stop 002F     __end_of_I2C2TransmitData 089E  
                     tblptru 000FF8               ?_WriteToEEPROM 0033                ??_PortsConfig 0033  
                ?_ReadEEPROM 002F                   __accesstop 0060      __end_of__initialization 09E4  
          __end_of_HandleIOC 096E                ___rparam_used 000001         I2C2TransmitData@data 0033  
             __pcstackCOMRAM 002F                    ?_TMR2_ISR 002F                    ?_TMR4_ISR 002F  
              ??_StartStatus 0034                   ??_I2C1_ISR 002F                   ??_I2C2Scan 0034  
          __end_of_IntConfig 09D8                   ??_I2C2Stop 0033          __end_of_RequestData 0432  
                ?_SaveSensor 002F          __end_of_PortsConfig 071E  __end_of_I2C2TransmitAddress 07CC  
                 ??_TMR2_ISR 002F                   ??_TMR4_ISR 002F                _SearchProcess 089E  
                    _IOC_ISR 0A3C                      _T2Delay 002A          __end_of_StartStatus 077E  
            ??_WriteToEEPROM 0034                 ??_TMR2Config 0033                      _T2Count 002B  
                    _T4Count 0029                      i2u70_40 0022                      i2u70_41 001E  
                    i2u71_40 0036                      i2u71_41 0032                      _NVMCON2 000F82  
                    i2u72_40 004A                      i2u72_41 0046                      i2u73_40 005E  
                    i2u73_41 005A                      i2u66_40 0560                      i2u66_41 055C  
                    i2u67_40 057E                      i2u67_41 057A                      i2u68_40 05B0  
                    i2u68_41 05AC                      i2u69_40 05D0                      i2u69_41 05CC  
                    _SSP1ADD 000F93                      _SSP2ADD 000E93                      _PPSLOCK 000EA0  
                    _SSP1BUF 000F92                      _SSP2BUF 000E92                      _SSP1MSK 000F94  
               ??_SSP1Config 0033                 ??_SSP2Config 0033                      __Hparam 0000  
                    __Lparam 0000           __end_of_TMR2Config 09BA                  _RequestData 02C4  
             ?_SearchProcess 002F                      __pcinit 09D8                      __ramtop 0F00  
         __end_of_SSP1Config 0860           __end_of_SSP2Config 0A08                      __ptext0 0626  
                    __ptext1 071E                      __ptext2 0996                      __ptext3 09F2  
                    __ptext4 0818                      __ptext5 0A1C                      __ptext6 089E  
                    __ptext7 0072                      __ptext8 08DA                      __ptext9 02C4  
               _EraseSensors 096E              _I2C2RequestData 0432                    _T2CLKbits 000FBF  
                  _T2CONbits 000FBD                    _T4CLKbits 000FB9                    _T4CONbits 000FB7  
       end_of_initialization 09E4                    _IOCConfig 0A1C                  _PortsConfig 06B6  
              __Lmediumconst 0000                 ??_HandleTMR2 0033                 ??_HandleTMR4 0033  
                    postinc0 000FEE                  _StartStatus 071E                    _NVMConfig 0A4A  
          ?_I2C2TransmitData 002F           ??_I2C2TransmitData 0033                   ?_IOCConfig 002F  
         __end_of_HandleTMR2 0818           __end_of_HandleTMR4 0A66                RequestData@i2 003A  
               ??_ReadEEPROM 0033                    _HandleIOC 0944      __end_of_I2C2RequestData 0548  
            ??_SearchProcess 0037                   ?_NVMConfig 002F           __end_of_ReadEEPROM 0A3C  
                  _IntConfig 09BA          start_initialization 09D8                  __end_of_ISR 006E  
               ??_SaveSensor 0037                   ?_HandleIOC 002F           __end_of_SaveSensor 02C4  
                   ?_IOC_ISR 002F                   ?_IntConfig 002F                  __pbssCOMRAM 0001  
                ??_IOCConfig 0033                    __pintcode 0008                 ?_RequestData 002F  
      RequestData@lastSensor 0039             ?_I2C2RequestData 0033                     _I2C2Data 0025  
                   _I2C1_ISR 0548                     _I2C2Scan 08DA                     _I2C2Stop 0A08  
                ??_NVMConfig 0033        __end_of_WriteToEEPROM 0944                 ?_PortsConfig 002F  
                   _PIE0bits 000EC2                     _PIE3bits 000EC5                     _PIE4bits 000EC6  
                 _I2C1RxData 0026                     _PIR0bits 000ECA                     _PIR3bits 000ECD  
                   _PIR4bits 000ECE                   _I2C1Status 0027                  ??_HandleIOC 0033  
                   _TMR2_ISR 0A5A                     _TMR4_ISR 0A52                 ?_StartStatus 002F  
               RequestData@i 003C                  ??_IntConfig 0033                     __Hrparam 0000  
                   __Lrparam 0000                  _scanAddress 002D                _I2C1Registers 0001  
       RequestData@byteCount 003B                     __ptext10 0A2E                     __ptext11 0860  
                   __ptext20 0944                     __ptext12 077E                     __ptext21 096E  
                   __ptext13 0A08                     __ptext22 0916                     __ptext14 0432  
                   __ptext15 06B6                     __ptext24 0A52                     __ptext16 0A4A  
                   __ptext25 0A5A                     __ptext17 09BA                     __ptext26 0A3C  
                   __ptext18 0A62                     __ptext27 0548                     __ptext19 07CC  
                   _distData 0022                 _SSP1CON1bits 000F96                 _SSP1CON2bits 000F97  
               _SSP1CON3bits 000F98                 _SSP2CON1bits 000E96                 _SSP2CON2bits 000E97  
       WriteToEEPROM@address 0034                     isa$xinst 000000                     int$flags 003D  
               _SSP1STATbits 000F95        __end_of_SearchProcess 08DA                 _SSP2STATbits 000E95  
                 _INTCONbits 000FF2                  _NVMCON1bits 000F81                 _I2C1RegIndex 0028  
                   intlevel2 0000          _I2C2TransmitAddress 077E                  _PPSLOCKbits 000EA0  
           WriteToEEPROM@val 0033          RequestData@sensorID 0037                  _sensorEEADR 002C  
              EraseSensors@i 0035                ?_EraseSensors 002F         ?_I2C2TransmitAddress 002F  
                 _SSP1DATPPS 000EB8                   _SSP2DATPPS 000E90                   _SSP1CLKPPS 000EB7  
                 _SSP2CLKPPS 000E8F                   _TMR2Config 0996                   _SSP1Config 0818  
                 _SSP2Config 09F2             _I2C2TransmitData 0860  
