MPASM 5.86       SENSORBOARDASSEMBLY_PCB.ASM   4-20-2022  13:02:34         PAGE  1


LOC  OBJECT CODE     LINE SOURCE TEXT
  VALUE

                      00001 ;===============================================================================
                      00002 ;
                      00003 ;                    Modular I2C Sensor Board Assembly Code
                      00004 ;                          Created By: Taylor Herndon
                      00005 ;                                 Spring 2022
                      00006 ;
                      00007 ;===============================================================================
                      00008 ;
                      00009 ;
                      00010 ;===============================================================================
                      00011     
Warning[215]: Processor superseded by command line.  Verify processor symbol.
                      00012     LIST p=18F26k40_g
                      00013     #include "p18f26k40.inc"
                      00001         LIST
                      00002 
                      00003 ;==========================================================================
                      00004 ; Build date : Oct 24 2019
                      00005 ;  MPASM PIC18F26K40 processor include
                      00006 ; 
                      00007 ;  (c) Copyright 1999-2019 Microchip Technology, All rights reserved
                      00008 ;==========================================================================
                      00009 
                      04525         LIST
                      00014 
                      00015 ; CONFIG1L
                      00016   CONFIG  FEXTOSC = OFF         ; External Oscillator mode Selection bits (Oscillator not enabled)
                      00017   CONFIG  RSTOSC = HFINTOSC_64MHZ; Power-up default value for COSC bits (HFINTOSC with HFFRQ = 64 MHz an
                            d CDIV = 1:1)
                      00018 
                      00019 ; CONFIG1H
                      00020   CONFIG  CLKOUTEN = OFF        ; Clock Out Enable bit (CLKOUT function is disabled)
                      00021   CONFIG  CSWEN = ON            ; Clock Switch Enable bit (Writing to NOSC and NDIV is allowed)
                      00022   CONFIG  FCMEN = ON            ; Fail-Safe Clock Monitor Enable bit (Fail-Safe Clock Monitor enabled)
                      00023 
                      00024 ; CONFIG2L
                      00025   CONFIG  MCLRE = EXTMCLR       ; Master Clear Enable bit (If LVP = 0, MCLR pin is MCLR; If LVP = 1, RE3
                             pin function is MCLR )
                      00026   CONFIG  PWRTE = OFF           ; Power-up Timer Enable bit (Power up timer disabled)
                      00027   CONFIG  LPBOREN = OFF         ; Low-power BOR enable bit (ULPBOR DISABLED)
                      00028   CONFIG  BOREN = ON            ; Brown-out Reset Enable bits (Brown-out Reset enabled , SBOREN bit is i
                            gnored)
                      00029 
                      00030 ; CONFIG2H
                      00031   CONFIG  BORV = VBOR_285       ; Brown Out Reset Voltage selection bits (Brown-out Reset Voltage (VBOR)
                             set to 2.85V)
                      00032   CONFIG  ZCD = OFF             ; ZCD Disable bit (ZCD disabled. ZCD can be enabled by setting the ZCDSE
                            N bit of ZCDCON)
                      00033   CONFIG  PPS1WAY = ON          ; PPSLOCK bit One-Way Set Enable bit (PPSLOCK bit can be cleared and set
                             only once; PPS registers remain locked after one clear/set cycle)
                      00034   CONFIG  STVREN = ON           ; Stack Full/Underflow Reset Enable bit (Stack full/underflow will cause
                             Reset)
                      00035   CONFIG  DEBUG = OFF           ; Debugger Enable bit (Background debugger disabled)
MPASM 5.86       SENSORBOARDASSEMBLY_PCB.ASM   4-20-2022  13:02:34         PAGE  2


LOC  OBJECT CODE     LINE SOURCE TEXT
  VALUE

                      00036   CONFIG  XINST = OFF           ; Extended Instruction Set Enable bit (Extended Instruction Set and Inde
                            xed Addressing Mode disabled)
                      00037 
                      00038 ; CONFIG3L
                      00039   CONFIG  WDTCPS = WDTCPS_5     ; WDT Period Select bits (Divider ratio 1:1024)
                      00040   CONFIG  WDTE = ON             ; WDT operating mode (WDT enabled regardless of sleep)
                      00041 
                      00042 ; CONFIG3H
                      00043   CONFIG  WDTCWS = WDTCWS_7     ; WDT Window Select bits (window always open (100%); software control; k
                            eyed access not required)
                      00044   CONFIG  WDTCCS = LFINTOSC     ; WDT input clock selector (WDT reference clock is the 31.0 kHz LFINTOSC
                            )
                      00045 
                      00046 ; CONFIG4L
                      00047   CONFIG  WRT0 = OFF            ; Write Protection Block 0 (Block 0 (000800-003FFFh) not write-protected
                            )
                      00048   CONFIG  WRT1 = OFF            ; Write Protection Block 1 (Block 1 (004000-007FFFh) not write-protected
                            )
                      00049   CONFIG  WRT2 = OFF            ; Write Protection Block 2 (Block 2 (008000-00BFFFh) not write-protected
                            )
                      00050   CONFIG  WRT3 = OFF            ; Write Protection Block 3 (Block 3 (00C000-00FFFFh) not write-protected
                            )
                      00051 
                      00052 ; CONFIG4H
                      00053   CONFIG  WRTC = OFF            ; Configuration Register Write Protection bit (Configuration registers (
                            300000-30000Bh) not write-protected)
                      00054   CONFIG  WRTB = OFF            ; Boot Block Write Protection bit (Boot Block (000000-0007FFh) not write
                            -protected)
                      00055   CONFIG  WRTD = OFF            ; Data EEPROM Write Protection bit (Data EEPROM not write-protected)
                      00056   CONFIG  SCANE = ON            ; Scanner Enable bit (Scanner module is available for use, SCANMD bit ca
                            n control the module)
                      00057   CONFIG  LVP = ON              ; Low Voltage Programming Enable bit (Low voltage programming enabled. M
                            CLR/VPP pin function is MCLR. MCLRE configuration bit is ignored)
                      00058 
                      00059 ; CONFIG5L
                      00060   CONFIG  CP = OFF              ; UserNVM Program Memory Code Protection bit (UserNVM code protection di
                            sabled)
                      00061   CONFIG  CPD = OFF             ; DataNVM Memory Code Protection bit (DataNVM code protection disabled)
                      00062 
                      00063 ; CONFIG5H
                      00064 
                      00065 ; CONFIG6L
                      00066   CONFIG  EBTR0 = OFF           ; Table Read Protection Block 0 (Block 0 (000800-003FFFh) not protected 
                            from table reads executed in other blocks)
                      00067   CONFIG  EBTR1 = OFF           ; Table Read Protection Block 1 (Block 1 (004000-007FFFh) not protected 
                            from table reads executed in other blocks)
                      00068   CONFIG  EBTR2 = OFF           ; Table Read Protection Block 2 (Block 2 (008000-00BFFFh) not protected 
                            from table reads executed in other blocks)
                      00069   CONFIG  EBTR3 = OFF           ; Table Read Protection Block 3 (Block 3 (00C000-00FFFFh) not protected 
                            from table reads executed in other blocks)
                      00070 
                      00071 ; CONFIG6H
                      00072   CONFIG  EBTRB = OFF           ; Boot Block Table Read Protection bit (Boot Block (000000-0007FFh) not 
MPASM 5.86       SENSORBOARDASSEMBLY_PCB.ASM   4-20-2022  13:02:34         PAGE  3


LOC  OBJECT CODE     LINE SOURCE TEXT
  VALUE

                            protected from table reads executed in other blocks)
                      00073     
                      00074 ;===CPU MEMORY MAP==============================================================
                      00075     
  00000000            00076 WSAVE       EQU     0x00                ;ISR VARIABLES
  00000001            00077 STATUSSAVE  EQU     0x01                ;//
  00000002            00078 PFLAG       EQU     0x02                ;/
                      00079             
  00000003            00080 VARRAY      EQU     0x03                ;MACRO VARIABLES
  00000004            00081 VINDEX      EQU     0x04                ;/
                      00082 
  00000005            00083 EEDAT       EQU     0X05                ;EEPROM VARIABLES
  00000006            00084 EEADR       EQU     0X06                ;/
                      00085             
  00000007            00086 I2C2ADR     EQU     0X07                ;I2C2 VARIABLES
  00000008            00087 I2C2DAT     EQU     0X08                ;//
  00000009            00088 I2C2RXDAT   EQU     0X09                ;/
                      00089    
  0000000A            00090 I2C1STATUS  EQU     0X0A                ;I2C1VARIABLES
  0000000B            00091 I2C1RXDAT   EQU     0X0B                ;//
  0000000C            00092 I2C1REGIND  EQU     0X0C                ;/
                      00093  
  0000000D            00094 SCANADR     EQU     0X0D                ;SCAN AND SAVE SENSOR VARIABLES
  0000000E            00095 SENSOREEADR EQU     0X0E                ;/
                      00096  
  0000000F            00097 LASTSENSOR  EQU     0X0F                ;REQUEST DATA VARIABLES
  00000010            00098 BYTECOUNT   EQU     0X10                ;//////
  00000011            00099 SENSORID    EQU     0X11                ;/////
  00000012            00100 DISTBYTES   EQU     0X12                ;////
  00000013            00101 COUNT       EQU     0X13                ;///
  00000014            00102 DISTDATHOLD EQU     0X14                ;//
  00000015            00103 DISTDATIND  EQU     0X15                ;/
                      00104  
  00000016            00105 T2DELAY     EQU     0X16                ;TIMER VARIABLES
  00000017            00106 T2COUNT     EQU     0X17                ;//
  00000018            00107 T4DELAY     EQU     0X18                ;/
                      00108             
  00000019            00109 TEMPADR     EQU     0X19                ;HOLDING VARIABLE FOR I2C ADDRESS
                      00110             
  00000020            00111 I2C1REG     EQU     0X20                ;I2C1 SLAVE REGISTERS [0X20-0X4F]
  00000050            00112 ID          EQU     0X50                ;ID ARRAY [0X50-0X5F]
  00000060            00113 DISTDATA    EQU     0X60                ;DISTANCE DATA ARRAY [0X60-0X6F]
                      00114   
                      00115 ;===END CPU MEMORY MAP==========================================================
                      00116 ;===ORG BEGIN===================================================================
                      00117             
                      00118             ORG     0x00                ;DEFAULT SETUP LOCATION VECTOR IS 0X00
000000 EF?? F???      00119             GOTO    SETUP               ;/
                      00120             ORG     0x08                ;DEFAULT INTERRUPT VECTOR IS 0X08
000008 EF?? F???      00121             GOTO    INTERRUPT           ;/
                      00122             
                      00123 ;===ORG END=====================================================================
                      00124 ;===MACROS BEGIN================================================================
MPASM 5.86       SENSORBOARDASSEMBLY_PCB.ASM   4-20-2022  13:02:34         PAGE  4


LOC  OBJECT CODE     LINE SOURCE TEXT
  VALUE

                      00125 ;------ARRAY MACRO--------------------------------------------------------------
                      00126 ARRAY       MACRO   VARRAY,VINDEX
                      00127             CLRF    FSR0H               ; CLEAR HIGH BYTE
                      00128             LFSR    0,VARRAY            ; FSR0 = &vArray[0]
                      00129             MOVF    VINDEX,W            ; INDEX, 0..255
                      00130             ADDWF   FSR0L,F             ; FSR0 = &vArray[vIndex]
                      00131             ENDM                        ; END MACRO
                      00132 ;------END ARRAY MACRO----------------------------------------------------------
                      00133 ;===MACROS END==================================================================
                      00134 ;===SETUP MICROCONTROLLER FUNCTIONS=============================================
00000C                00135 SETUP
                      00136 ;------VARIABLE SETUP-----------------------------------------------------------
00000C 0100           00137             BANKSEL WSAVE               ;CLEAR ALL VARIABLES ON STARTUP
00000E 6A00           00138             CLRF    WSAVE               ;/////////////////////////
000010 6A01           00139             CLRF    STATUSSAVE          ;////////////////////////
000012 6A02           00140             CLRF    PFLAG               ;///////////////////////
000014 6A03           00141             CLRF    VARRAY              ;//////////////////////
000016 6A04           00142             CLRF    VINDEX              ;/////////////////////
000018 6A05           00143             CLRF    EEDAT               ;////////////////////
00001A 6A06           00144             CLRF    EEADR               ;///////////////////
00001C 6A07           00145             CLRF    I2C2ADR             ;//////////////////
00001E 6A08           00146             CLRF    I2C2DAT             ;/////////////////
000020 6A09           00147             CLRF    I2C2RXDAT           ;////////////////
000022 6A0A           00148             CLRF    I2C1STATUS          ;///////////////
000024 6A0B           00149             CLRF    I2C1RXDAT           ;//////////////
000026 6A0C           00150             CLRF    I2C1REGIND          ;/////////////
000028 6A0D           00151             CLRF    SCANADR             ;////////////
00002A 6A0E           00152             CLRF    SENSOREEADR         ;///////////
00002C 6A0F           00153             CLRF    LASTSENSOR          ;//////////
00002E 6A10           00154             CLRF    BYTECOUNT           ;/////////
000030 6A11           00155             CLRF    SENSORID            ;////////
000032 6A12           00156             CLRF    DISTBYTES           ;///////
000034 6A13           00157             CLRF    COUNT               ;//////
000036 6A14           00158             CLRF    DISTDATHOLD         ;/////
000038 6A15           00159             CLRF    DISTDATIND          ;////
00003A 6A16           00160             CLRF    T2DELAY             ;///
00003C 6A17           00161             CLRF    T2COUNT             ;//
00003E 6A18           00162             CLRF    T4DELAY             ;/
                      00163             
                      00164             ARRAY   0X20,D'0'
000040 6AEA               M             CLRF    FSR0H               ; CLEAR HIGH BYTE
000042 EE00 F020          M             LFSR    0,0X20              ; FSR0 = &vArray[0]
000046 5000               M             MOVF    D'0',W              ; INDEX, 0..255
000048 26E9               M             ADDWF   FSR0L,F             ; FSR0 = &vArray[vIndex]
00004A                00165 CLEARREGLOOP
00004A 0E00           00166             MOVLW   0X00
00004C 6EEF           00167             MOVWF   INDF0
00004E 2AE9           00168             INCF    FSR0L,1
000050 0E19           00169             MOVLW   D'25'
000052 62E9           00170             CPFSEQ  FSR0L
000054 EF?? F???      00171             GOTO    CLEARREGLOOP
                      00172             
                      00173             ARRAY   0X20,D'25'
MPASM 5.86       SENSORBOARDASSEMBLY_PCB.ASM   4-20-2022  13:02:34         PAGE  5


LOC  OBJECT CODE     LINE SOURCE TEXT
  VALUE

000058 6AEA               M             CLRF    FSR0H               ; CLEAR HIGH BYTE
00005A EE00 F020          M             LFSR    0,0X20              ; FSR0 = &vArray[0]
00005E 5019               M             MOVF    D'25',W             ; INDEX, 0..255
000060 26E9               M             ADDWF   FSR0L,F             ; FSR0 = &vArray[vIndex]
000062 0E4D           00174             MOVLW   'M'
000064 6EEF           00175             MOVWF   INDF0
                      00176             ARRAY   0X20,D'26'
000066 6AEA               M             CLRF    FSR0H               ; CLEAR HIGH BYTE
000068 EE00 F020          M             LFSR    0,0X20              ; FSR0 = &vArray[0]
00006C 501A               M             MOVF    D'26',W             ; INDEX, 0..255
00006E 26E9               M             ADDWF   FSR0L,F             ; FSR0 = &vArray[vIndex]
000070 0E4F           00177             MOVLW   'O'
000072 6EEF           00178             MOVWF   INDF0
                      00179             ARRAY   0X20,D'27'
000074 6AEA               M             CLRF    FSR0H               ; CLEAR HIGH BYTE
000076 EE00 F020          M             LFSR    0,0X20              ; FSR0 = &vArray[0]
00007A 501B               M             MOVF    D'27',W             ; INDEX, 0..255
00007C 26E9               M             ADDWF   FSR0L,F             ; FSR0 = &vArray[vIndex]
00007E 0E44           00180             MOVLW   'D'
000080 6EEF           00181             MOVWF   INDF0
                      00182             ARRAY   0X20,D'28'
000082 6AEA               M             CLRF    FSR0H               ; CLEAR HIGH BYTE
000084 EE00 F020          M             LFSR    0,0X20              ; FSR0 = &vArray[0]
000088 501C               M             MOVF    D'28',W             ; INDEX, 0..255
00008A 26E9               M             ADDWF   FSR0L,F             ; FSR0 = &vArray[vIndex]
00008C 0E58           00183             MOVLW   'X'
00008E 6EEF           00184             MOVWF   INDF0
                      00185             
000090 0E96           00186             MOVLW   D'150'              ;SET T2DELAY TO INDICATE PROGRAMMING MODE IMMEDIATLY
000092 6E16           00187             MOVWF   T2DELAY             ;/
                      00188 ;------END VARIABLE SETUP-------------------------------------------------------
                      00189 ;------PORT SETUP---------------------------------------------------------------
000094 010E           00190             BANKSEL PPSLOCK             ;PPSLOCK CHARGE PUMP TO UNLOCK PPS REASSIGNMENT
000096 0E55           00191             MOVLW   0x55                ;////
000098 6FA0           00192             MOVWF   PPSLOCK             ;///
00009A 0EAA           00193             MOVLW   0xAA                ;//
00009C 6FA0           00194             MOVWF   PPSLOCK             ;/
00009E 91A0           00195             BCF     PPSLOCK,PPSLOCKED   ;UNLOCK PPS
                      00196             
0000A0 010E           00197             BANKSEL RC0PPS              ;SET RC0 INPUT DESITINATION AS MSSP1 DATA
0000A2 0E10           00198             MOVLW   0X10                ;//
0000A4 6FF7           00199             MOVWF   RC0PPS              ;/
0000A6 010E           00200             BANKSEL RC1PPS              ;
0000A8 0E0F           00201             MOVLW   0X0F                ;SET RC1 INPUT DESTINATION AS MSSP1 CLOCK
0000AA 6FF8           00202             MOVWF   RC1PPS              ;/
                      00203             
0000AC 010E           00204             BANKSEL SSP1DATPPS          ;SET MSSP1 DATA OUTPUT AS RC0
0000AE 0E10           00205             MOVLW   B'00010000'         ;//
0000B0 6FB8           00206             MOVWF   SSP1DATPPS          ;/
0000B2 010E           00207             BANKSEL SSP1CLKPPS
0000B4 0E11           00208             MOVLW   B'00010001'         ;SET MSSP1 CLK OUTPUT AS RC1
0000B6 6FB7           00209             MOVWF   SSP1CLKPPS          ;/
                      00210             
MPASM 5.86       SENSORBOARDASSEMBLY_PCB.ASM   4-20-2022  13:02:34         PAGE  6


LOC  OBJECT CODE     LINE SOURCE TEXT
  VALUE

0000B8 010E           00211             BANKSEL RC2PPS              ;SET RC2 INPUT DESTINATION AS MSSP2 DATA
0000BA 0E12           00212             MOVLW   0X12                ;//
0000BC 6FF9           00213             MOVWF   RC2PPS              ;/
0000BE 010E           00214             BANKSEL RC3PPS
0000C0 0E11           00215             MOVLW   0X11                ;SET RC3 INPUT DESTINATION AS MSSP2 CLOCK
0000C2 6FFA           00216             MOVWF   RC3PPS              ;/
                      00217             
0000C4 010E           00218             BANKSEL SSP2DATPPS          ;SET MSSP2 DATA OUTPUT AS RC2
0000C6 0E12           00219             MOVLW   B'00010010'         ;//
0000C8 6F90           00220             MOVWF   SSP2DATPPS          ;/
0000CA 010E           00221             BANKSEL SSP2CLKPPS
0000CC 0E13           00222             MOVLW   B'00010011'         ;SET MSSP2 CLOCK OUTPUT AS RC3
0000CE 6F8F           00223             MOVWF   SSP2CLKPPS          ;/
                      00224             
0000D0 010E           00225             BANKSEL PPSLOCK             ;PPSLOCK CHARGE PUMP TO LOCK PPS REASSIGNMENTS
0000D2 0E55           00226             MOVLW   0X55                ;////
0000D4 6FA0           00227             MOVWF   PPSLOCK             ;///
0000D6 0EAA           00228             MOVLW   0XAA                ;//
0000D8 6FA0           00229             MOVWF   PPSLOCK             ;/
0000DA 81A0           00230             BSF     PPSLOCK,PPSLOCKED   ;LOCK PPS
                      00231             
0000DC 010F           00232             BANKSEL LATA                ;CLEAR ALL UNDESIRED OUTPUTS
0000DE 6A83           00233             CLRF    LATA                ;////
0000E0 6A84           00234             CLRF    LATB                ;///
0000E2 6A85           00235             CLRF    LATC                ;//
                      00236             
0000E4 010F           00237             BANKSEL ANSELA              ;ALL PINS ARE DIGITAL IOs
0000E6 6B11           00238             CLRF    ANSELA              ;////
0000E8 6B19           00239             CLRF    ANSELB              ;///
0000EA 6B21           00240             CLRF    ANSELC              ;//
                      00241             
0000EC 010F           00242             BANKSEL TRISA               ;INPUT/OUTPUT PIN SELECTION
0000EE 6A88           00243             CLRF    TRISA               ;PORTA IS DEBUGGING LEDS
0000F0 6889           00244             SETF    TRISB               ;PORTB IS SLAVE ADDRESS DIP SWITCHES
0000F2 688A           00245             SETF    TRISC               ;PORTC IS PROGRAMMING FUNCTIONS AND I2C
                      00246             
                      00247 ;------END PORT SETUP-----------------------------------------------------------
                      00248 ;------STARTUP PROCESS----------------------------------------------------------
                      00249 ;HERE THE PROGRAM HEADER IS EVAULUATED AND WHAT MODULES TO START IS DETERMINED
                      00250 ;PORT SETUP IS ALLWAYS NEEDED SO IT IS BEFORE THIS PROCESS
0000F4 010F           00251             BANKSEL PORTC
0000F6 BC8F           00252             BTFSC   PORTC,6
0000F8 EF?? F???      00253             GOTO    PROGRAMMODE
0000FC EF?? F???      00254             GOTO    STANDARDMODE
                      00255 ;------END STARTUP PROCESS------------------------------------------------------
                      00256 ;------PROGRAM MODE-------------------------------------------------------------
000100                00257 PROGRAMMODE ;IN PROGRAM MODE: I2C1: DISABLED, I2C2: ENABLED, TMR2: ENABLED, IOC: ENABLED
                      00258             
000100 EC?? F???      00259             CALL    SSP2SETUP
000104 EC?? F???      00260             CALL    TIMER2SETUP
000108 EC?? F???      00261             CALL    IOCSETUP
00010C EC?? F???      00262             CALL    INTERRUPTSETUP
                      00263             
MPASM 5.86       SENSORBOARDASSEMBLY_PCB.ASM   4-20-2022  13:02:34         PAGE  7


LOC  OBJECT CODE     LINE SOURCE TEXT
  VALUE

000110 010F           00264             BANKSEL LATA
000112 6883           00265             SETF    LATA
                      00266             
000114 EF?? F???      00267             GOTO    MAINBEGIN
                      00268 ;------END PROGRAM MODE---------------------------------------------------------
                      00269 ;------STANDARD MODE------------------------------------------------------------
000118                00270 STANDARDMODE ;IN STANDARD MODE: I2C1: ENABLED, I2C2: ENABLED, TMR2: DISABLED, IOC: DISABLED
                      00271             
                      00272             ;CALL    SSP1SETUP          ;SSP1 WILL BE ENABLED AND CONFIGURED WITH TMR4
000118 EC?? F???      00273             CALL    SSP2SETUP
00011C EC?? F???      00274             CALL    TIMER4SETUP
000120 EC?? F???      00275             CALL    INTERRUPTSETUP
                      00276             
000124 EF?? F???      00277             GOTO    MAINBEGIN
                      00278 ;------END STANDARD MODE--------------------------------------------------------
                      00279 ;------TIMER SETUP--------------------------------------------------------------
000128                00280 TIMER2SETUP
                      00281             ;TIMER2: PRE = 1:128, POST = 1:16 PR = 250, t/MATCH = 32ms
                      00282             
000128 010F           00283             BANKSEL T2PR                ;TIMER2 PERIOD REGISTER, SET TO 250
00012A 0EFA           00284             MOVLW   D'250'              ;//
00012C 6EBC           00285             MOVWF   T2PR                ;/
                      00286             
00012E 010F           00287             BANKSEL T2CON               ;TIMER2 CONTROL REGISTER
000130 8EBD           00288             BSF     T2CON,T2ON          ;TIMER2 ENABLE BIT
000132 8CBD           00289             BSF     T2CON,T2CKPS2       ;TIMER2 PRESCALER = 1:128
000134 8ABD           00290             BSF     T2CON,T2CKPS1       ;//
000136 88BD           00291             BSF     T2CON,T2CKPS0       ;/
000138 86BD           00292             BSF     T2CON,T2OUTPS3      ;TIMER2 POSTSCALER = 1:16
00013A 84BD           00293             BSF     T2CON,T2OUTPS2      ;///
00013C 82BD           00294             BSF     T2CON,T2OUTPS1      ;//
00013E 80BD           00295             BSF     T2CON,T2OUTPS0      ;/
                      00296             
000140 010F           00297             BANKSEL T2HLT               ;TIMER2 HARDWARE LIMIT CONTROL REGISTER
000142 9EBE           00298             BCF     T2HLT,PSYNC         ;PRESCALER SYNCRONIZATION ENABLE BIT
000144 9CBE           00299             BCF     T2HLT,CKPOL         ;TIMER CLOCK POLARITY SELECT BIT
000146 9ABE           00300             BCF     T2HLT,CKSYNC        ;TIMER CLOCK SYNCRONIZATION ENABLE BIT
000148 90BE           00301             BCF     T2HLT,MODE0         ;TIMER2 MODE SELECT BITS, 00000 = NORMAL OPERATION
00014A 92BE           00302             BCF     T2HLT,MODE1         ;////
00014C 94BE           00303             BCF     T2HLT,MODE2         ;///
00014E 96BE           00304             BCF     T2HLT,MODE3         ;//
000150 98BE           00305             BCF     T2HLT,MODE4         ;/
                      00306             
000152 010F           00307             BANKSEL T2CLKCON            ;TIMER2 CLOCK SOURCE SELECTION REGISTER
000154 96BF           00308             BCF     T2CLKCON,CS3        ;TIMER2 CLOCK SOURCE SELECT BITS, 0001 = FOSC/4
000156 94BF           00309             BCF     T2CLKCON,CS2        ;///
000158 92BF           00310             BCF     T2CLKCON,CS1        ;//
00015A 80BF           00311             BSF     T2CLKCON,CS0        ;/
                      00312             
00015C 010E           00313             BANKSEL PIE4                ;TIMER INTERRUPT ENABLE BITS
00015E 83C6           00314             BSF     PIE4,TMR2IE         ;TIMER2 INTERRUPTS = ENABLED
                      00315             
000160 0012           00316             RETURN
MPASM 5.86       SENSORBOARDASSEMBLY_PCB.ASM   4-20-2022  13:02:34         PAGE  8


LOC  OBJECT CODE     LINE SOURCE TEXT
  VALUE

                      00317             
000162                00318 TIMER4SETUP
                      00319             
                      00320             ;TIMER4 IS USED ONLY FOR STARTUP DELAY
                      00321             ;TIMER4: PRE = 1:128, POST = 1:16, PR = 250, t/MATCH = 32mS
                      00322             
000162 010F           00323             BANKSEL T4PR                ;TIMER4 PERIOD REGISTER, SET TO 125
000164 0EFA           00324             MOVLW   D'250'              ;//
000166 6EB6           00325             MOVWF   T4PR                ;/
                      00326             
000168 010F           00327             BANKSEL T4CON               ;TIMER4 CONTROL REGISTER
00016A 8EB7           00328             BSF     T4CON,T4ON          ;TIMER4 ENABLE BIT
00016C 8CB7           00329             BSF     T4CON,T4CKPS2       ;TIMER4 PRESCALER = 1:128
00016E 8AB7           00330             BSF     T4CON,T4CKPS1       ;//
000170 88B7           00331             BSF     T4CON,T4CKPS0       ;/
000172 86B7           00332             BSF     T4CON,T4OUTPS3      ;TIMER4 POSTSCALER = 1:16
000174 84B7           00333             BSF     T4CON,T4OUTPS2      ;///
000176 82B7           00334             BSF     T4CON,T4OUTPS1      ;//
000178 80B7           00335             BSF     T4CON,T4OUTPS0      ;/
                      00336             
00017A 010F           00337             BANKSEL T4HLT               ;TIMER4 HARDWARE LIMIT CONTROL REGISTER
00017C 9EB8           00338             BCF     T4HLT,PSYNC         ;PRESCALER SYNCRONIZATION ENABLE BIT
00017E 9CB8           00339             BCF     T4HLT,CKPOL         ;TIMER CLOCK POLARITY SELECT BIT
000180 9AB8           00340             BCF     T4HLT,CKSYNC        ;TIMER CLOCK SYNCRONIZATION ENABLE BIT
000182 90B8           00341             BCF     T4HLT,MODE0         ;TIMER2 MODE SELECT BITS, 00000 = NORMAL OPERATION
000184 92B8           00342             BCF     T4HLT,MODE1         ;////
000186 94B8           00343             BCF     T4HLT,MODE2         ;///
000188 96B8           00344             BCF     T4HLT,MODE3         ;//
00018A 98B8           00345             BCF     T4HLT,MODE4         ;/
                      00346            
00018C 010F           00347             BANKSEL T4CLKCON            ;TIMER4 CLOCK SOURCE SELECTION REGISTER
00018E 96B9           00348             BCF     T4CLKCON,CS3        ;TIMER4 CLOCK SOURCE SELECT BITS, 0001 = FOSC/4
000190 94B9           00349             BCF     T4CLKCON,CS2        ;///
000192 92B9           00350             BCF     T4CLKCON,CS1        ;//
000194 80B9           00351             BSF     T4CLKCON,CS0        ;/
                      00352             
000196 010E           00353             BANKSEL PIE4                ;TIMER INTERRUPT ENABLE BITS
000198 87C6           00354             BSF     PIE4,TMR4IE         ;TIMER4 INTERRUPTS = ENABLED
                      00355             
00019A 0012           00356             RETURN
                      00357 ;------END TIMER SETUP----------------------------------------------------------
                      00358 ;------SSP1SETUP----------------------------------------------------------------
00019C                00359 SSP1SETUP
                      00360             
                      00361 ;           BANKSEL SSP1ADD             ;
                      00362 ;           MOVLW   0X10                ;
                      00363 ;           MOVWF   SSP1ADD             ;
                      00364             
00019C 010F           00365             BANKSEL PORTB               ;
00019E 1C8E           00366             COMF    PORTB,0             ;
0001A0 0100           00367             BANKSEL TEMPADR             ;
0001A2 6E19           00368             MOVWF   TEMPADR             ;
0001A4 90D8           00369             BCF     STATUS,C            ;
MPASM 5.86       SENSORBOARDASSEMBLY_PCB.ASM   4-20-2022  13:02:34         PAGE  9


LOC  OBJECT CODE     LINE SOURCE TEXT
  VALUE

0001A6 3619           00370             RLCF    TEMPADR,1           ;
0001A8 0E7E           00371             MOVLW   B'01111110'         ;
0001AA 1619           00372             ANDWF   TEMPADR,1           ;
                      00373             
0001AC 0E10           00374             MOVLW   0X10                ;
0001AE 6419           00375             CPFSGT  TEMPADR             ;
0001B0 6E19           00376             MOVWF   TEMPADR             ;
                      00377             
0001B2 5019           00378             MOVF    TEMPADR,0           ;
0001B4 010F           00379             BANKSEL SSP1ADD             ;
0001B6 6E93           00380             MOVWF   SSP1ADD             ;
                      00381             
0001B8 010F           00382             BANKSEL SSP1CON1
0001BA 8896           00383             BSF     SSP1CON1,CKP        ;RELEASE CLOCK ON STARTUP
0001BC 9696           00384             BCF     SSP1CON1,SSPM3      ;I2C 7 BIT ADDRESS SLAVE MODE
0001BE 8496           00385             BSF     SSP1CON1,SSPM2      ;///
0001C0 8296           00386             BSF     SSP1CON1,SSPM1      ;//
0001C2 9096           00387             BCF     SSP1CON1,SSPM0      ;/
                      00388             
0001C4 010F           00389             BANKSEL SSP1CON2            
0001C6 9E97           00390             BCF     SSP1CON2,GCEN       ;DISABLE GENERAL CALLS
                      00391             
0001C8 010F           00392             BANKSEL SSP1STAT            
0001CA 9E95           00393             BCF     SSP1STAT,SMP        ;SET SLEW RATE CONTROL FOR 400KHz
0001CC 9C95           00394             BCF     SSP1STAT,CKE        ;DISABLE SMBus SPECIFICATIONS
                      00395             
0001CE 010F           00396             BANKSEL SSP1MSK             ;USE ALL BITS TO ADDRESS SLAVE
0001D0 6894           00397             SETF    SSP1MSK             ;/
                      00398             
0001D2 010E           00399             BANKSEL PIE3                ;SERIAL DATA INTERRUPT ENABLE BITS
0001D4 93C5           00400             BCF     PIE3,BCL1IE         ;SSP1 BUS COLLISION INTERRUPT ENABLE
0001D6 81C5           00401             BSF     PIE3,SSP1IE         ;SSP1 INTERRUPT ENABLE
                      00402             
0001D8 010F           00403             BANKSEL SSP1CON1            ;ENABLE SERIAL PORT
0001DA 8A96           00404             BSF     SSP1CON1,SSPEN      ;/
                      00405             
0001DC 0012           00406             RETURN
                      00407 ;------END SSP1SETUP------------------------------------------------------------
                      00408 ;------SSP2SETUP----------------------------------------------------------------
0001DE                00409 SSP2SETUP
0001DE 010E           00410             BANKSEL SSP2ADD             ;
0001E0 0E9F           00411             MOVLW   D'159'              ;
0001E2 6F93           00412             MOVWF   SSP2ADD             ;
                      00413             
0001E4 010E           00414             BANKSEL SSP2CON1            ;
0001E6 8796           00415             BSF     SSP2CON1,SSPM3      ;
0001E8 9596           00416             BCF     SSP2CON1,SSPM2      ;
0001EA 9396           00417             BCF     SSP2CON1,SSPM1      ;
0001EC 9196           00418             BCF     SSP2CON1,SSPM0      ;
                      00419             
0001EE 010E           00420             BANKSEL SSP2STAT            ;
0001F0 8F95           00421             BSF     SSP2STAT,SMP        ;
0001F2 9D95           00422             BCF     SSP2STAT,CKE        ;
MPASM 5.86       SENSORBOARDASSEMBLY_PCB.ASM   4-20-2022  13:02:34         PAGE 10


LOC  OBJECT CODE     LINE SOURCE TEXT
  VALUE

                      00423             
0001F4 010E           00424             BANKSEL SSP2CON1            ;
0001F6 8B96           00425             BSF     SSP2CON1,SSPEN      ;
                      00426             
0001F8 010E           00427             BANKSEL PIE3                ;SERIAL DATA INTERRUPT ENABLE BITS
0001FA 97C5           00428             BCF     PIE3,BCL2IE         ;SSP2 BUS COLLISION INTERRUPT ENABLE
0001FC 95C5           00429             BCF     PIE3,SSP2IE         ;SSP2 INTERRUPT ENABLE
                      00430             
0001FE 0012           00431             RETURN
                      00432 ;------END SSP2SETUP------------------------------------------------------------
                      00433 ;------IOC SETUP----------------------------------------------------------------    
000200                00434 IOCSETUP
000200 010F           00435             BANKSEL IOCCP               ;ENABLE RISING EDGE INTERRUPTS ON RC4 & RC5
000202 0E30           00436             MOVLW   B'00110000'         ;//
000204 6F1C           00437             MOVWF   IOCCP               ;/
                      00438             
000206 010F           00439             BANKSEL IOCCN               ;DISABLED PORTC FALLING EDGE INTERRUPTS
000208 0E00           00440             MOVLW   B'00000000'         ;//
00020A 6F1B           00441             MOVWF   IOCCN               ;/
                      00442             
00020C 010E           00443             BANKSEL PIE0
00020E 9BC2           00444             BCF     PIE0,TMR0IE         ;DISABLE TIMER 0 INTERRUPTS
000210 89C2           00445             BSF     PIE0,IOCIE          ;ENABLE ON CHANGE INTERRUPTS
000212 91C2           00446             BCF     PIE0,INT0IE         ;DIABLE EXTERNAL INTERRUPTS
000214 93C2           00447             BCF     PIE0,INT1IE         ;//
000216 95C2           00448             BCF     PIE0,INT2IE         ;/
000218 0012           00449             RETURN          
                      00450 ;------END IOC SETUP------------------------------------------------------------
                      00451 ;------INTERRUPT SETUP----------------------------------------------------------
00021A                00452 INTERRUPTSETUP
00021A 010E           00453             BANKSEL PIR0                ;CLEAR ALL POSSIBLE UNWANTED FLAGS
00021C 6BCA           00454             CLRF    PIR0                ;/////////
00021E 010E           00455             BANKSEL PIR1                ;////////
000220 6BCB           00456             CLRF    PIR1                ;///////
000222 010E           00457             BANKSEL PIR2                ;//////
000224 6BCC           00458             CLRF    PIR2                ;/////
000226 010E           00459             BANKSEL PIR3                ;////
000228 6BCD           00460             CLRF    PIR3                ;///
00022A 010E           00461             BANKSEL PIR4                ;//
00022C 6BCE           00462             CLRF    PIR4                ;/
                      00463             
00022E 8EF2           00464             BSF     INTCON,GIE          ;ENABLE GLOBAL INTERRUPTS
000230 8CF2           00465             BSF     INTCON,PEIE         ;ENABLE PERIPHERALL INTERRUPTS
000232 0012           00466             RETURN
                      00467 ;------END INTERRUPT SETUP------------------------------------------------------
000234 EF?? F???      00468             GOTO    MAINBEGIN           ;SETUP END, GOTO MAIN PROGRAM LOOP
                      00469 ;===END SETUP MICROCONTROLLER FUNCTIONS=========================================
                      00470 ;===INTERRUPT SERVICE ROUTINE===================================================
000238                00471 INTERRUPT
000238 0100           00472             BANKSEL WSAVE               ;SAVE WREG AND STATUS REG
00023A 6E00           00473             MOVWF   WSAVE               ;///
00023C 50D8           00474             MOVF    STATUS,0            ;//
00023E 6E01           00475             MOVWF   STATUSSAVE          ;/
MPASM 5.86       SENSORBOARDASSEMBLY_PCB.ASM   4-20-2022  13:02:34         PAGE 11


LOC  OBJECT CODE     LINE SOURCE TEXT
  VALUE

                      00476             
000240 010E           00477             BANKSEL PIR4                ;CHECK IF TMR2 NEEDS SERVICED
000242 B3CE           00478             BTFSC   PIR4,TMR2IF         ;//
000244 EC?? F???      00479             CALL    TMR2PROCESS         ;/
                      00480             
000248 010E           00481             BANKSEL PIR0                ;CHECK IF IOC NEEDS SERVICED
00024A B9CA           00482             BTFSC   PIR0,IOCIF          ;//
00024C EC?? F???      00483             CALL    IOCPROCESS          ;/
                      00484             
000250 010E           00485             BANKSEL PIR3                ;CHECK IF I2C1 NEEDS SERVICED
000252 B1CD           00486             BTFSC   PIR3,SSP1IF         ;//
000254 EC?? F???      00487             CALL    I2C1ISR             ;/
                      00488             
000258 010E           00489             BANKSEL PIR4
00025A B7CE           00490             BTFSC   PIR4,TMR4IF
00025C EC?? F???      00491             CALL    TMR4PROCESS
                      00492             
000260 0100           00493             BANKSEL STATUSSAVE          ;RESTORE WREG AND STATUS REG
000262 5001           00494             MOVF    STATUSSAVE,0        ;///
000264 6ED8           00495             MOVWF   STATUS              ;//
000266 5000           00496             MOVF    WSAVE,0             ;/
                      00497             
000268 0010           00498             RETFIE
                      00499 ;===END INTERRUPT SERVICE ROUTINE===============================================
                      00500 ;===INTERRUPT FUNCTIONS=========================================================
                      00501 ;------TMR2PROCESS--------------------------------------------------------------
00026A                00502 TMR2PROCESS
                      00503             
00026A 93CE           00504             BCF     PIR4,TMR2IF         ;CLEAR FLAG TO NOT REPEAT ISR
00026C 0100           00505             BANKSEL PFLAG               ;SET PFLAG TO DEAL WITH IN MAIN
00026E 8C02           00506             BSF     PFLAG,6             ;/
                      00507             
000270 0012           00508             RETURN 
                      00509 ;------END TMR2PROCESS----------------------------------------------------------
                      00510 ;------TMR4PROCESS--------------------------------------------------------------
000272                00511 TMR4PROCESS
000272 97CE           00512             BCF     PIR4,TMR4IF
                      00513 
000274 0100           00514             BANKSEL T4DELAY
000276 0E03           00515             MOVLW   D'3'
000278 6018           00516             CPFSLT  T4DELAY,0
00027A EF?? F???      00517             GOTO    T4TICK
00027E 2A18           00518             INCF    T4DELAY,1
000280 0012           00519             RETURN
                      00520 ;------END TMR4PROCESS----------------------------------------------------------
                      00521 ;------T4TICK-------------------------------------------------------------------
000282                00522 T4TICK
000282 EC?? F???      00523             CALL    SSP1SETUP           ;CONFIGURE SSP1
                      00524             
000286 010F           00525             BANKSEL T4CON               ;DISABLE TMR4 NOW THAT SSP2 HAS BEEN CONFIGURED
000288 9EB7           00526             BCF     T4CON,T4ON          ;/
                      00527             
00028A 0012           00528             RETURN
MPASM 5.86       SENSORBOARDASSEMBLY_PCB.ASM   4-20-2022  13:02:34         PAGE 12


LOC  OBJECT CODE     LINE SOURCE TEXT
  VALUE

                      00529 ;------END T4TICK---------------------------------------------------------------
                      00530 ;------IOCPROCESS---------------------------------------------------------------
00028C                00531 IOCPROCESS
                      00532             
00028C 010F           00533             BANKSEL IOCCF               ;CLEAR INDIVIDUAL PORTC IOC FLAGS
00028E 6B1A           00534             CLRF    IOCCF               ;/
000290 010E           00535             BANKSEL PIR0                ;CLEAR IOC GENREAL FLAG
000292 99CA           00536             BCF     PIR0,IOCIF          ;/
                      00537             
000294 0100           00538             BANKSEL PFLAG               ;SET PFLAG TO DEAL WITH IN MAIN
000296 8A02           00539             BSF     PFLAG,5             ;/
                      00540             
000298 0012           00541             RETURN
                      00542 ;------END IOCPROCESS-----------------------------------------------------------
                      00543 ;------I2C1ISR------------------------------------------------------------------
00029A                00544 I2C1ISR
00029A 91CD           00545             BCF     PIR3,SSP1IF         ;CLEAR I2C FLAG
00029C 010F           00546             BANKSEL SSP1CON1            ;CLEAR ANY OVERFLOW EERORS
00029E 9C96           00547             BCF     SSP1CON1,SSPOV      ;/
                      00548             
0002A0 0100           00549             BANKSEL I2C1STATUS          ;IF STATUS IS NOT > 0 THEN STATUS IS 0
0002A2 0E00           00550             MOVLW   0X00                ;GOTO CASE 0 TO EVALUATE NEW CONVERSATION
0002A4 640A           00551             CPFSGT  I2C1STATUS,0        ;//
0002A6 EF?? F???      00552             GOTO    CASE0               ;/
                      00553             
0002AA 0E01           00554             MOVLW   0X01                ;IF STATUS IS NOT > 1 THEN STATUS IS 1
0002AC 640A           00555             CPFSGT  I2C1STATUS,0        ;GOTO CASE 1 TO EVALUATE WRITE CONVERSATION
0002AE EF?? F???      00556             GOTO    CASE1               ;/
                      00557             
0002B2 0E02           00558             MOVLW   0X02                ;IF STATUS IS NOT > 2 THEN STATUS IS 2
0002B4 640A           00559             CPFSGT  I2C1STATUS,0        ;GOTO CASE 2 TO EVAULATE READ CONVERSATION
0002B6 EF?? F???      00560             GOTO    CASE2               ;/
                      00561             
0002BA EF?? F???      00562             GOTO    CASEDEFAULT         ;NO OTHER CASE OCCOURED, GO TO DEFAULT
                      00563             
                      00564 ;~~~~~~~~~I2C1CASES~~~~~~~~~~~~~~~~~~~~~~~~~~~~~~~~~~~~~~~~~~~~~~~~~~~~~~~~~~~~~
0002BE                00565 CASE0       
0002BE 010F           00566             BANKSEL SSP1BUF             ;READ BUFFER TO CLEAR FLAG
0002C0 5092           00567             MOVF    SSP1BUF,0           ;/
                      00568             
0002C2 0100           00569             BANKSEL I2C1STATUS          ;LOAD WRITE CONVERSATION BY DEFAULT
0002C4 0E01           00570             MOVLW   0X01                ;//
0002C6 6E0A           00571             MOVWF   I2C1STATUS          ;/
                      00572             
0002C8 010F           00573             BANKSEL SSP1STAT            ;CHECK FOR READ CONVERSATION
0002CA B495           00574             BTFSC   SSP1STAT,R_W        ;//
0002CC EC?? F???      00575             CALL    SLAVESENDDAT        ;/
                      00576             
0002D0 8896           00577             BSF     SSP1CON1,CKP        ;RELEASE CLOCK
                      00578             
0002D2 EF?? F???      00579             GOTO    CASEEND
                      00580             
0002D6                00581 CASE1       
MPASM 5.86       SENSORBOARDASSEMBLY_PCB.ASM   4-20-2022  13:02:34         PAGE 13


LOC  OBJECT CODE     LINE SOURCE TEXT
  VALUE

0002D6 010F           00582             BANKSEL SSP1BUF             ;READ BUFFER TO GET REGISTER INDEX
0002D8 5092           00583             MOVF    SSP1BUF,0           ;///
0002DA 0100           00584             BANKSEL I2C1REGIND          ;//
0002DC 6E0C           00585             MOVWF   I2C1REGIND          ;/
                      00586             
0002DE 010F           00587             BANKSEL SSP1CON1            ;RELEASE CLOCK
0002E0 8896           00588             BSF     SSP1CON1,CKP        ;/
                      00589             
0002E2 0100           00590             BANKSEL I2C1STATUS          ;CLEAR STATUS TO WAIT FOR NEXT CONVERSATION
0002E4 6A0A           00591             CLRF    I2C1STATUS          ;/
                      00592             
0002E6 EF?? F???      00593             GOTO    CASEEND
                      00594             
0002EA                00595 CASE2
0002EA 010F           00596             BANKSEL SSP1CON1            ;TEST IF STOP CONDITION WAS GENERATED
0002EC B896           00597             BTFSC   SSP1CON1,CKP        ;/
0002EE EF?? F???      00598             GOTO    I2C1ENDREAD         ;IF STOP WAS DETECTED, CLEAR CONVERSATION
                      00599             
0002F2 EC?? F???      00600             CALL    SLAVESENDDAT        ;IF STOP WAS NOT DETECTED, SEND NEXT BYTE
                      00601             
0002F6 010F           00602             BANKSEL SSP1CON1            ;RELEASE CLOCK
0002F8 8896           00603             BSF     SSP1CON1,CKP        ;/
                      00604             
0002FA EF?? F???      00605             GOTO    CASEEND
                      00606             
0002FE                00607 CASEDEFAULT                             ;DO NOTHING ON DEFAULT CASE
0002FE EF?? F???      00608             GOTO    CASEEND    
                      00609             
000302                00610 CASEEND
                      00611 ;~~~~~~~~~END I2C1CASES~~~~~~~~~~~~~~~~~~~~~~~~~~~~~~~~~~~~~~~~~~~~~~~~~~~~~~~~~
000302 0012           00612             RETURN
                      00613 ;------END I2C1ISR--------------------------------------------------------------
                      00614 ;---------I2C1ENDREAD-----------------------------------------------------------
000304                00615 I2C1ENDREAD
000304 0100           00616             BANKSEL I2C1STATUS          ;CLEAR I2C1STATUS TO WAIT FOR NEXT CONVERSATION
000306 6A0A           00617             CLRF    I2C1STATUS          ;/
000308 8402           00618             BSF     PFLAG,2             ;SET PFLAG[2] TO REQUEST NEW DISTANCE DATA
00030A EF?? F???      00619             GOTO    CASEEND             ;GOTO END OF CASE STRUCTURE
                      00620 ;---------END I2C1ENDREAD-------------------------------------------------------
                      00621 ;---------SLAVESENDDAT----------------------------------------------------------
00030E                00622 SLAVESENDDAT
                      00623             
00030E 0100           00624             BANKSEL I2C1STATUS          ;SET STORED CONVERSATION AS READ
000310 0E02           00625             MOVLW   0X02                ;//
000312 6E0A           00626             MOVWF   I2C1STATUS          ;/
                      00627             
000314 6AEA           00628             CLRF    FSR0H               ;
000316 0E20           00629             MOVLW   0X20                ;
000318 6EE9           00630             MOVWF   FSR0L               ;
00031A 0100           00631             BANKSEL I2C1REGIND          ;
00031C 500C           00632             MOVF    I2C1REGIND,0        ;
00031E 26E9           00633             ADDWF   FSR0L,1             ;
000320 50EF           00634             MOVF    INDF0,0             ;
MPASM 5.86       SENSORBOARDASSEMBLY_PCB.ASM   4-20-2022  13:02:34         PAGE 14


LOC  OBJECT CODE     LINE SOURCE TEXT
  VALUE

000322 010F           00635             BANKSEL SSP1BUF             ;
000324 6E92           00636             MOVWF   SSP1BUF             ;
                      00637             
000326 2A0C           00638             INCF    I2C1REGIND,1        ;INCREMENT TO NEXT REGISTER
                      00639             
000328 0012           00640             RETURN
                      00641 ;---------END SLAVESENDDAT------------------------------------------------------
                      00642 ;===END INTERRUPT FUNCTIONS=====================================================
                      00643 ;===FUNCTIONS===================================================================
                      00644 ;------WRITE TO EEPROM----------------------------------------------------------
                      00645 ;REQUIRED: LOAD EEDAT AND EEADR WITH CORESPONDING VALUES
00032A                00646 WRITETOEEPROM
                      00647             
00032A 9EF2           00648             BCF     INTCON,GIE          ;DISABLE INTERRUPTS FOR THIS PROCESS
                      00649             
00032C 010F           00650             BANKSEL NVMADRH             ;CLEAR HIGH BYTE OF ADDRESS REGISTER
00032E 6A7F           00651             CLRF    NVMADRH             ;/
000330 0100           00652             BANKSEL EEADR               ;LOAD EEADR TO NVMADR TO SELECT NVM ADDRESS
000332 5006           00653             MOVF    EEADR,0             ;///
000334 010F           00654             BANKSEL NVMADRL             ;//
000336 6E7E           00655             MOVWF   NVMADRL             ;/
                      00656             
000338 0100           00657             BANKSEL EEDAT               ;LOAD EEDAT TO NVMDAT TO STORE THAT DATA
00033A 5005           00658             MOVF    EEDAT,0             ;///
00033C 010F           00659             BANKSEL NVMDAT              ;//
00033E 6E80           00660             MOVWF   NVMDAT              ;/
                      00661             
000340 010F           00662             BANKSEL NVMCON1             ;ALLOW FOR EEPROM TO BE WRITTEN TO
000342 8481           00663             BSF     NVMCON1,WREN        ;/
                      00664             
000344 0E55           00665             MOVLW   0X55                ;EEPROM CHARGE PUMP
000346 6E82           00666             MOVWF   NVMCON2             ;///
000348 0EAA           00667             MOVLW   0XAA                ;//
00034A 6E82           00668             MOVWF   NVMCON2             ;/
                      00669             
00034C 8281           00670             BSF     NVMCON1,WR          ;START WRITE SEQUENCE TO EEPROM
                      00671             
00034E 8EF2           00672             BSF     INTCON,GIE          ;ENABLE INTERRUPTS AGAIN
                      00673             
000350 B281           00674             BTFSC   NVMCON1,WR          ;WAIT FOR WRITE SEQUENCE TO FINSIH
000352 EF?? F???      00675             GOTO    $-2                 ;/
                      00676             
000356 9481           00677             BCF     NVMCON1,WREN        ;DISABLE WRITE ACCESS
                      00678             
000358 0012           00679             RETURN
                      00680 ;------END WRITE TO EEPROM------------------------------------------------------
                      00681 ;------READ EEPROM--------------------------------------------------------------
                      00682 ;REQUIRED: LOAD EEADR WITH THE CORRECT ADDRESS
00035A                00683 READEEPROM
                      00684             
00035A 010F           00685             BANKSEL NVMADR              ;LOAD THE TARGET ADDRESS
00035C 6A7F           00686             CLRF    NVMADRH             ;/////
00035E 0100           00687             BANKSEL EEADR               ;////
MPASM 5.86       SENSORBOARDASSEMBLY_PCB.ASM   4-20-2022  13:02:34         PAGE 15


LOC  OBJECT CODE     LINE SOURCE TEXT
  VALUE

000360 5006           00688             MOVF    EEADR,0             ;///
000362 010F           00689             BANKSEL NVMADR              ;//
000364 6E7E           00690             MOVWF   NVMADRL             ;/
                      00691             
000366 010F           00692             BANKSEL NVMCON1             ;INITIATE READ PROCESS
000368 8081           00693             BSF     NVMCON1,RD          ;/
                      00694             
00036A 010F           00695             BANKSEL NVMDAT              ;STORE READ EEPROM VALUE IN EEDAT VARIABLE
00036C 5080           00696             MOVF    NVMDAT,0            ;///
00036E 0100           00697             BANKSEL EEDAT               ;//
000370 6E05           00698             MOVWF   EEDAT               ;/
                      00699             
000372 0012           00700             RETURN
                      00701 ;------END READ EEPROM----------------------------------------------------------
                      00702             
                      00703 ;------I2C2FAIL-----------------------------------------------------------------
000374                00704 I2C2FAIL
000374 010E           00705             BANKSEL SSP2CON2            ;GENERATE STOP CONDITION
000376 8597           00706             BSF     SSP2CON2,PEN        ;/
000378 B597           00707             BTFSC   SSP2CON2,PEN        ;WAIT FOR STOP CONDITION TO FINSIH
00037A EF?? F???      00708             GOTO    $-2                 ;/
                      00709             
00037E 0C00           00710             RETLW   0X00                ;RETURN WITH FAIL VALUE IN W REGISTER
                      00711 ;------END I2C2FAIL-------------------------------------------------------------
                      00712 ;------I2C2STOP-----------------------------------------------------------------
000380                00713 I2C2STOP
000380 010E           00714             BANKSEL SSP2CON2            ;GENERATE STOP CONDITION
000382 8597           00715             BSF     SSP2CON2,PEN        ;/
000384 B597           00716             BTFSC   SSP2CON2,PEN        ;WAIT FOR STOP CONDITION TO FINSIH
000386 EF?? F???      00717             GOTO    $-2                 ;/
                      00718             
00038A 0012           00719             RETURN
                      00720 ;------END I2C2STOP-------------------------------------------------------------
                      00721 ;------I2C2TXADDRESS------------------------------------------------------------
                      00722 ;REQUIRED: LOAD I2C2ADR WITH ADDRESS TO TRANSMIT
00038C                00723 I2C2TXADDRESS
                      00724             
00038C 010E           00725             BANKSEL SSP2CON2            ;GENERATE START CONDITION
00038E 8197           00726             BSF     SSP2CON2,0          ;/
000390 B197           00727             BTFSC   SSP2CON2,0          ;WAIT FOR START CONDITION TO FINSIH
000392 EF?? F???      00728             GOTO    $-2                 ;/
                      00729             
000396 0100           00730             BANKSEL I2C2ADR             ;LOAD THE ADDRESS INTO THE TX BUFFER
000398 5007           00731             MOVF    I2C2ADR,0           ;///
00039A 010E           00732             BANKSEL SSP2BUF             ;//
00039C 6F92           00733             MOVWF   SSP2BUF             ;/
                      00734             
00039E 010E           00735             BANKSEL SSP2STAT            ;WAIT FOR BYTE TO FINISH TRANSMITING
0003A0 B595           00736             BTFSC   SSP2STAT,R_W        ;//
0003A2 EF?? F???      00737             GOTO    $-2                 ;/
                      00738             
0003A6 010E           00739             BANKSEL SSP2CON2            ;CHECK FOR ACKNOWLEDGE BIT
0003A8 BD97           00740             BTFSC   SSP2CON2,ACKSTAT    ;/
MPASM 5.86       SENSORBOARDASSEMBLY_PCB.ASM   4-20-2022  13:02:34         PAGE 16


LOC  OBJECT CODE     LINE SOURCE TEXT
  VALUE

0003AA EF?? F???      00741             GOTO    I2C2FAIL            ;EXIT AND RETURN 0X00 IF NO ACK OCCOURED
                      00742             
0003AE 0CFF           00743             RETLW   0XFF                ;ADDRESS TRANSMIT WAS SUCCESSFULL
                      00744 ;------END I2C2TXADDRESS--------------------------------------------------------
                      00745 ;------I2C2TXDATA---------------------------------------------------------------
                      00746 ;REQUIRED: LOAD I2C2DAT WITH DATA TO TRANSMIT
0003B0                00747 I2C2TXDATA
0003B0 0100           00748             BANKSEL I2C2DAT             ;LOAD DATA INTO THE TX BUFFER
0003B2 5008           00749             MOVF    I2C2DAT,0           ;///
0003B4 010E           00750             BANKSEL SSP2BUF             ;//
0003B6 6F92           00751             MOVWF   SSP2BUF             ;/
                      00752             
0003B8 010E           00753             BANKSEL SSP2STAT            ;WAIT FOR DATA TO TRANSMIT
0003BA B595           00754             BTFSC   SSP2STAT,R_W        ;//
0003BC EF?? F???      00755             GOTO    $-2                 ;/
                      00756             
0003C0 010E           00757             BANKSEL SSP2CON2            ;CHECK FOR ACKNOWLEDGE BIT
0003C2 BD97           00758             BTFSC   SSP2CON2,ACKSTAT    ;/
0003C4 EF?? F???      00759             GOTO    I2C2FAIL            ;EXIT AND RETURN 0X00 IF NO ACK OCCOURED
                      00760             
0003C8 0CFF           00761             RETLW   0XFF                ;DATA TRANSMIT WAS SUCCESSFULL
                      00762 ;------END I2C2TXDATA-----------------------------------------------------------
                      00763 ;------I2C2REQUESTFIRST---------------------------------------------------------
                      00764 ;REQUIRED: LOAD I2C2ADR WITH THE CORRECT REQUEST ADDRESS
0003CA                00765 I2C2REQUESTFIRST
                      00766             
0003CA EC?? F???      00767             CALL    I2C2TXADDRESS       ;SEND THE READ ADDRESS
                      00768             
0003CE 0800           00769             SUBLW   0X00                ;TEST IF ADDRESS TRANSMIT WAS SUCCESSFUL
0003D0 B4D8           00770             BTFSC   STATUS,Z            ;/
0003D2 EF?? F???      00771             GOTO    I2C2FAIL            ;EXIT AND RETURN 0X00 IF ADDRESS TX FAILED
                      00772             
0003D6 010E           00773             BANKSEL SSP2CON2            ;ENABLE MASTER RECEIVE MODE
0003D8 8797           00774             BSF     SSP2CON2,RCEN       ;/
                      00775             
0003DA B797           00776             BTFSC   SSP2CON2,RCEN       ;WAIT FOR DATA TO BE RECEIVED
0003DC EF?? F???      00777             GOTO    $-2                 ;/
                      00778             
0003E0 010E           00779             BANKSEL SSP2BUF             ;SAVE DATA TO I2C2RXDAT
0003E2 5192           00780             MOVF    SSP2BUF,0           ;///
0003E4 0100           00781             BANKSEL I2C2RXDAT           ;//
0003E6 6E09           00782             MOVWF   I2C2RXDAT           ;/
                      00783             
0003E8 010E           00784             BANKSEL SSP2CON2            ;SET ACKNOWLEDGE TYPE TO !ACK
0003EA 9B97           00785             BCF     SSP2CON2,ACKDT      ;/
0003EC 8997           00786             BSF     SSP2CON2,ACKEN      ;GENERATE !ACK
                      00787             
0003EE B997           00788             BTFSC   SSP2CON2,ACKEN      ;WAIT UNTIL ACKNOWLEDGE SEQUENCE IS DONE
0003F0 EF?? F???      00789             GOTO    $-2                 ;/
                      00790             
0003F4 0CFF           00791             RETLW   0XFF                ;FIRST DATA BYTE REQUEST SUCCESS
                      00792 ;------END I2C2REQUESTFIRST-----------------------------------------------------
                      00793 ;------I2C2REQUESTMID-----------------------------------------------------------
MPASM 5.86       SENSORBOARDASSEMBLY_PCB.ASM   4-20-2022  13:02:34         PAGE 17


LOC  OBJECT CODE     LINE SOURCE TEXT
  VALUE

0003F6                00794 I2C2REQUESTMID
                      00795             
0003F6 010E           00796             BANKSEL SSP2CON2            ;ENABLE MASTER RECEIVE MODE
0003F8 8797           00797             BSF     SSP2CON2,RCEN       ;/
                      00798             
0003FA B797           00799             BTFSC   SSP2CON2,RCEN       ;WAIT FOR DATA TO BE RECEIVED
0003FC EF?? F???      00800             GOTO    $-2                 ;/
                      00801             
000400 010E           00802             BANKSEL SSP2BUF             ;SAVE DATA TO I2C2RXDAT
000402 5192           00803             MOVF    SSP2BUF,0           ;///
000404 0100           00804             BANKSEL I2C2RXDAT           ;//
000406 6E09           00805             MOVWF   I2C2RXDAT           ;/
                      00806             
000408 010E           00807             BANKSEL SSP2CON2            ;SET ACKNOWLEDGE TYPE TO !ACK
00040A 9B97           00808             BCF     SSP2CON2,ACKDT      ;/
00040C 8997           00809             BSF     SSP2CON2,ACKEN      ;GENERATE !ACK
                      00810             
00040E B997           00811             BTFSC   SSP2CON2,ACKEN      ;WAIT UNTIL ACKNOWLEDGE SEQUENCE IS DONE
000410 EF?? F???      00812             GOTO    $-2                 ;/
                      00813             
000414 0CFF           00814             RETLW   0XFF                ;N'TH DATA BYTE REQUEST SUCCESS
                      00815 ;------END I2C2REQUESTMID-------------------------------------------------------
                      00816 ;------I2C2REQUESTLAST----------------------------------------------------------
000416                00817 I2C2REQUESTLAST
                      00818             
000416 010E           00819             BANKSEL SSP2CON2            ;ENABLE MASTER RECEIVE MODE
000418 8797           00820             BSF     SSP2CON2,RCEN       ;/
                      00821             
00041A B797           00822             BTFSC   SSP2CON2,RCEN       ;WAIT FOR DATA TO BE RECEIVED
00041C EF?? F???      00823             GOTO    $-2                 ;/
                      00824             
000420 010E           00825             BANKSEL SSP2BUF             ;SAVE DATA TO I2C2RXDAT
000422 5192           00826             MOVF    SSP2BUF,0           ;///
000424 0100           00827             BANKSEL I2C2RXDAT           ;//
000426 6E09           00828             MOVWF   I2C2RXDAT           ;/
                      00829             
000428 010E           00830             BANKSEL SSP2CON2            ;SET ACKNOWLEDGE TYPE TO NACK
00042A 8B97           00831             BSF     SSP2CON2,ACKDT      ;/
00042C 8997           00832             BSF     SSP2CON2,ACKEN      ;GENERATE NACK
                      00833             
00042E B997           00834             BTFSC   SSP2CON2,ACKEN      ;WAIT UNTIL ACKNOWLEDGE SEQUENCE IS DONE
000430 EF?? F???      00835             GOTO    $-2                 ;/
                      00836             
000434 0CFF           00837             RETLW   0XFF                ;LAST DATA BYTE REQUST SUCCESS
                      00838 ;------END I2C2REQUESTLAST------------------------------------------------------
                      00839 
                      00840 ;------I2C2SCAN-----------------------------------------------------------------
000436                00841 I2C2SCAN
000436 0100           00842             BANKSEL I2C2ADR             ;START ADDRESS IS 0X10 (WILL INCREMENT TO 0X10)
000438 0E0E           00843             MOVLW   0X0E                ;//
00043A 6E07           00844             MOVWF   I2C2ADR             ;/
                      00845             
00043C                00846 SCANLOOP
MPASM 5.86       SENSORBOARDASSEMBLY_PCB.ASM   4-20-2022  13:02:34         PAGE 18


LOC  OBJECT CODE     LINE SOURCE TEXT
  VALUE

                      00847             
00043C 0100           00848             BANKSEL I2C2ADR             ;GO TO NEXT POSSIBLE ADDRESS
00043E 2A07           00849             INCF    I2C2ADR,1           ;//
000440 2A07           00850             INCF    I2C2ADR,1           ;/
                      00851             
000442 0E7F           00852             MOVLW   0X7F                ;MAX ADDRESS IS 0X7F (ABOVE IS RESERVED)
000444 6007           00853             CPFSLT  I2C2ADR,0           ;/
000446 0C00           00854             RETLW   0X00                ;RETURN FAIL CONDITION
                      00855             
000448 EC?? F???      00856             CALL    I2C2TXADDRESS       ;SEND ADDRESS ON I2C BUS
00044C 0800           00857             SUBLW   0X00                ;IF ADDRESS FAILED, REPEAT THE LOOP
00044E B4D8           00858             BTFSC   STATUS,Z            ;//
000450 EF?? F???      00859             GOTO    SCANLOOP            ;/
                      00860                 
000454 EC?? F???      00861             CALL    I2C2STOP            ;END CONVERSATION MANUALLY ON SUCCESS
                      00862             
000458 0100           00863             BANKSEL I2C2ADR             ;SAVE FOUND ADDRESS
00045A C007 F00D      00864             MOVFF   I2C2ADR,SCANADR     ;/
                      00865             
00045E 0CFF           00866             RETLW   0XFF                ;RETURN SUCCESS CONDITION
                      00867 ;------END I2C2SCAN-------------------------------------------------------------
                      00868 ;------SAVE SENSOR--------------------------------------------------------------
000460                00869 SAVESENSOR
                      00870             
000460 0100           00871             BANKSEL SENSOREEADR         ;
000462 0E0E           00872             MOVLW   0X0E                ;
000464 6E0E           00873             MOVWF   SENSOREEADR         ;
                      00874             
000466                00875 EESCANLOOP
                      00876             
000466 0100           00877             BANKSEL SENSOREEADR         ;GO TO NEXT ADDRESS
000468 2A0E           00878             INCF    SENSOREEADR,1       ;//
00046A 2A0E           00879             INCF    SENSOREEADR,1       ;/
                      00880             
00046C 0E1F           00881             MOVLW   0X1F                ;COULD NOT FIND ADDRESS
00046E 600E           00882             CPFSLT  SENSOREEADR,0       ;/
000470 0C00           00883             RETLW   0X00                ;RETURN FAIL CONDITION
                      00884             
000472 C00E F006      00885             MOVFF   SENSOREEADR,EEADR   ;READ EEPROM @ SENSOREEADR
000476 EC?? F???      00886             CALL    READEEPROM          ;
                      00887             
00047A 0E00           00888             MOVLW   0X00                ;CHECK IF LOCATION IS EMPTY
00047C 6205           00889             CPFSEQ  EEDAT,0             ;/
00047E EF?? F???      00890             GOTO    EESCANLOOP          ;IF LOCATION IS NOT EMPTY, CHECK NEXT
                      00891             
                      00892             ;---SELECT SENSOR REGISTER 0X3C (SENSOR IDENTIFICATION)-------------
                      00893             
000482 C00D F007      00894             MOVFF   SCANADR,I2C2ADR     ;TRANSMIT KNOWN ADDRESS TO START CONVERSATION
000486 EC?? F???      00895             CALL    I2C2TXADDRESS       ;/
00048A 0800           00896             SUBLW   0X00                ;CHECK IF ADDRESS TRANSMIT WAS SUCCESSFULL
00048C B4D8           00897             BTFSC   STATUS,Z            ;//
00048E EF?? F???      00898             GOTO    I2C2FAIL            ;/
                      00899             
MPASM 5.86       SENSORBOARDASSEMBLY_PCB.ASM   4-20-2022  13:02:34         PAGE 19


LOC  OBJECT CODE     LINE SOURCE TEXT
  VALUE

000492 0100           00900             BANKSEL I2C2DAT             ;SELECT REGISTER 0X3C
000494 0E3C           00901             MOVLW   0X3C                ;///
000496 6E08           00902             MOVWF   I2C2DAT             ;//
000498 EC?? F???      00903             CALL    I2C2TXDATA          ;/
00049C 0800           00904             SUBLW   0X00                ;CHECK IF DATA TRANSMIT WAS SUCCESSFULL
00049E B4D8           00905             BTFSC   STATUS,Z            ;//
0004A0 EF?? F???      00906             GOTO    I2C2FAIL            ;/
                      00907             
0004A4 EC?? F???      00908             CALL    I2C2STOP            ;STOP I2C CONVERSATION
                      00909             
                      00910             ;---READ AND STORE SENSOR IDENTIFICATION----------------------------
                      00911             
0004A8 8007           00912             BSF     I2C2ADR,0           ;SET LSB FOR READ REQUEST
0004AA EC?? F???      00913             CALL    I2C2REQUESTFIRST    ;REQUEST FIRST BYTE (I2C2ADR DID NOT CHANGE)
0004AE 0800           00914             SUBLW   0X00                ;CHECK IF DATA REQUEST WAS SUCCESSFULL
0004B0 B4D8           00915             BTFSC   STATUS,Z            ;//
0004B2 EF?? F???      00916             GOTO    I2C2FAIL            ;/
                      00917             
                      00918             ARRAY   0X50,D'0'           ;SELECT ARRAY ID[0]
0004B6 6AEA               M             CLRF    FSR0H               ; CLEAR HIGH BYTE
0004B8 EE00 F050          M             LFSR    0,0X50              ; FSR0 = &vArray[0]
0004BC 5000               M             MOVF    D'0',W              ; INDEX, 0..255
0004BE 26E9               M             ADDWF   FSR0L,F             ; FSR0 = &vArray[vIndex]
0004C0 0100           00919             BANKSEL I2C2RXDAT           ;STORE RECEIVED DATA IN ID[0]
0004C2 C009 FFEF      00920             MOVFF   I2C2RXDAT,INDF0     ;/
                      00921             
0004C6 EC?? F???      00922             CALL    I2C2REQUESTMID      ;REQUEST SECOND BYTE
0004CA 0800           00923             SUBLW   0X00                ;CHECK IF DATA REQUEST WAS SUCCESSFULL
0004CC B4D8           00924             BTFSC   STATUS,Z            ;//
0004CE EF?? F???      00925             GOTO    I2C2FAIL            ;/
                      00926             
                      00927             ARRAY   0X50,D'1'           ;SELECT ARRAY ID[1]
0004D2 6AEA               M             CLRF    FSR0H               ; CLEAR HIGH BYTE
0004D4 EE00 F050          M             LFSR    0,0X50              ; FSR0 = &vArray[0]
0004D8 5001               M             MOVF    D'1',W              ; INDEX, 0..255
0004DA 26E9               M             ADDWF   FSR0L,F             ; FSR0 = &vArray[vIndex]
0004DC 0100           00928             BANKSEL I2C2RXDAT           ;STORE RECEIVED DATA IN ID[1]
0004DE C009 FFEF      00929             MOVFF   I2C2RXDAT,INDF0     ;/
                      00930             
0004E2 EC?? F???      00931             CALL    I2C2REQUESTMID      ;REQUEST THIRD BYTE
0004E6 0800           00932             SUBLW   0X00                ;CHECK IF DATA REQUEST WAS SUCCESSFULL
0004E8 B4D8           00933             BTFSC   STATUS,Z            ;//
0004EA EF?? F???      00934             GOTO    I2C2FAIL            ;/
                      00935             
                      00936             ARRAY   0X50,D'2'           ;SELECT ARRAY ID[2]
0004EE 6AEA               M             CLRF    FSR0H               ; CLEAR HIGH BYTE
0004F0 EE00 F050          M             LFSR    0,0X50              ; FSR0 = &vArray[0]
0004F4 5002               M             MOVF    D'2',W              ; INDEX, 0..255
0004F6 26E9               M             ADDWF   FSR0L,F             ; FSR0 = &vArray[vIndex]
0004F8 0100           00937             BANKSEL I2C2RXDAT           ;STORE RECEIVED DATA IN ID[2]
0004FA C009 FFEF      00938             MOVFF   I2C2RXDAT,INDF0     ;/
                      00939             
0004FE EC?? F???      00940             CALL    I2C2REQUESTLAST     ;REQUEST FOURTH BYTE
MPASM 5.86       SENSORBOARDASSEMBLY_PCB.ASM   4-20-2022  13:02:34         PAGE 20


LOC  OBJECT CODE     LINE SOURCE TEXT
  VALUE

000502 0800           00941             SUBLW   0X00                ;CHECK IF DATA REQUEST WAS SUCCESSFULL
000504 B4D8           00942             BTFSC   STATUS,Z            ;//
000506 EF?? F???      00943             GOTO    I2C2FAIL            ;/
                      00944             
                      00945             ARRAY   0X50,D'3'           ;SELECT ARRAY ID[3]
00050A 6AEA               M             CLRF    FSR0H               ; CLEAR HIGH BYTE
00050C EE00 F050          M             LFSR    0,0X50              ; FSR0 = &vArray[0]
000510 5003               M             MOVF    D'3',W              ; INDEX, 0..255
000512 26E9               M             ADDWF   FSR0L,F             ; FSR0 = &vArray[vIndex]
000514 0100           00946             BANKSEL I2C2RXDAT           ;STORE RECEIVED DATA IN ID[3]
000516 C009 FFEF      00947             MOVFF   I2C2RXDAT,INDF0     ;/
                      00948             
00051A EC?? F???      00949             CALL    I2C2STOP            ;STOP I2C CONVERSATION
                      00950             
                      00951             ;---ADDRESS REASSIGNMENT--------------------------------------------
                      00952 
00051E 9007           00953             BCF     I2C2ADR,0           ;CLEAR LSB FOR WRITE REQUEST
000520 EC?? F???      00954             CALL    I2C2TXADDRESS       ;TRANSMIT KNOWN ADDRESS TO START CONVERSATION
000524 0800           00955             SUBLW   0X00                ;CHECK IF ADDRESS TRANSMIT WAS SUCCESSFULL
000526 B4D8           00956             BTFSC   STATUS,Z            ;//
000528 EF?? F???      00957             GOTO    I2C2FAIL            ;/
                      00958             
00052C 0100           00959             BANKSEL I2C2DAT             ;SELECT REGISTER 0X22
00052E 0E22           00960             MOVLW   0X22                ;///
000530 6E08           00961             MOVWF   I2C2DAT             ;//
000532 EC?? F???      00962             CALL    I2C2TXDATA          ;/
000536 0800           00963             SUBLW   0X00                ;CHECK IF DATA TRANSMIT WAS SUCCESSFULL
000538 B4D8           00964             BTFSC   STATUS,Z            ;//
00053A EF?? F???      00965             GOTO    I2C2FAIL            ;/
                      00966 
00053E 0100           00967             BANKSEL SENSOREEADR         ;TRANSMIT SENSOREEADR TO ASSIGN NEW ADDRESS
000540 90D8           00968             BCF     STATUS,C            ;////
000542 300E           00969             RRCF    SENSOREEADR,0       ;///
000544 6E08           00970             MOVWF   I2C2DAT             ;//
000546 EC?? F???      00971             CALL    I2C2TXDATA          ;/
00054A 0800           00972             SUBLW   0X00                ;CHECK IF DATA TRANSMIT WAS SUCCESSFULL
00054C B4D8           00973             BTFSC   STATUS,Z            ;//
00054E EF?? F???      00974             GOTO    I2C2FAIL            ;/
                      00975             
000552 EC?? F???      00976             CALL    I2C2STOP            ;STOP I2C CONVERSATION
                      00977             
                      00978             ;---SAVE PROCESSES--------------------------------------------------
                      00979             
                      00980             ARRAY   0X50,D'0'           ;PREPARE ID[0] TO BE ACCESSED
000556 6AEA               M             CLRF    FSR0H               ; CLEAR HIGH BYTE
000558 EE00 F050          M             LFSR    0,0X50              ; FSR0 = &vArray[0]
00055C 5000               M             MOVF    D'0',W              ; INDEX, 0..255
00055E 26E9               M             ADDWF   FSR0L,F             ; FSR0 = &vArray[vIndex]
                      00981             
000560 0E4C           00982             MOVLW   'L'                 ;CHECK FOR LUNA
000562 62EF           00983             CPFSEQ  INDF0,0             ;///
000564 EF?? F???      00984             GOTO    CHECK1              ;//
000568 EF?? F???      00985             GOTO    LUNADETECT          ;/
MPASM 5.86       SENSORBOARDASSEMBLY_PCB.ASM   4-20-2022  13:02:34         PAGE 21


LOC  OBJECT CODE     LINE SOURCE TEXT
  VALUE

                      00986             
00056C                00987 CHECK1
                      00988             
00056C 0E49           00989             MOVLW   'I'                 ;CHECK FOR INFRARED BOARD
00056E 62EF           00990             CPFSEQ  INDF0,0             ;///
000570 EF?? F???      00991             GOTO    CHECK2              ;//
000574 EF?? F???      00992             GOTO    INFDETECT           ;/
                      00993             
000578                00994 CHECK2
                      00995             
000578 0C00           00996             RETLW   0X00                ;SENSOR UNKNOWN RETURN FAIL CONDITION
                      00997             
00057A                00998 LUNADETECT
00057A 0100           00999             BANKSEL EEDAT               ;SAVE SENSOR TYPE LUNA TO EEPROM AT ADDRESS
00057C 0E4C           01000             MOVLW   'L'                 ;////
00057E 6E05           01001             MOVWF   EEDAT               ;///
000580 C00E F006      01002             MOVFF   SENSOREEADR,EEADR   ;//
000584 EC?? F???      01003             CALL    WRITETOEEPROM       ;/
                      01004             
000588 0100           01005             BANKSEL EEDAT               ;SAVE 1 DATA BYTE IN EEPROM AT ADDRESS +1
00058A 0E01           01006             MOVLW   0X01                ;////
00058C 6E05           01007             MOVWF   EEDAT               ;///
00058E 1206           01008             IORWF   EEADR,1             ;//
000590 EC?? F???      01009             CALL    WRITETOEEPROM       ;/
                      01010             
000594 C00E F007      01011             MOVFF   SENSOREEADR,I2C2ADR ;USE NEW ADDRESS TO FIND LUNA
000598 EC?? F???      01012             CALL    I2C2TXADDRESS       ;TRANSMIT NEW ADDRESS TO START CONVERSATION
00059C 0800           01013             SUBLW   0X00                ;CHECK IF ADDRESS TRANSMIT WAS SUCCESSFULL
00059E B4D8           01014             BTFSC   STATUS,Z            ;//
0005A0 EF?? F???      01015             GOTO    I2C2FAIL            ;/
                      01016             
0005A4 0100           01017             BANKSEL I2C2DAT             ;SELECT REGISTER 0X20 (SAVE REGISTER)
0005A6 0E20           01018             MOVLW   0X20                ;///
0005A8 6E08           01019             MOVWF   I2C2DAT             ;//
0005AA EC?? F???      01020             CALL    I2C2TXDATA          ;/
0005AE 0800           01021             SUBLW   0X00                ;CHECK IF DATA TRANSMIT WAS SUCCESSFULL
0005B0 B4D8           01022             BTFSC   STATUS,Z            ;//
0005B2 EF?? F???      01023             GOTO    I2C2FAIL            ;/
                      01024             
0005B6 0100           01025             BANKSEL I2C2DAT             ;TRANSMIT 0X01 TO START SAVE PROCESS
0005B8 0E01           01026             MOVLW   0X01                ;///
0005BA 6E08           01027             MOVWF   I2C2DAT             ;//
0005BC EC?? F???      01028             CALL    I2C2TXDATA          ;/
0005C0 0800           01029             SUBLW   0X00                ;CHECK IF DATA TRANSMIT WAS SUCCESSFULL
0005C2 B4D8           01030             BTFSC   STATUS,Z            ;//
0005C4 EF?? F???      01031             GOTO    I2C2FAIL            ;/
                      01032             
0005C8 EC?? F???      01033             CALL    I2C2STOP            ;STOP I2C CONVERSATION
                      01034             
0005CC EF?? F???      01035             GOTO    DETECTCONTINUE      ;GOTO END OF PROCESS
                      01036             
0005D0                01037 INFDETECT
                      01038             
MPASM 5.86       SENSORBOARDASSEMBLY_PCB.ASM   4-20-2022  13:02:34         PAGE 22


LOC  OBJECT CODE     LINE SOURCE TEXT
  VALUE

0005D0 0100           01039             BANKSEL EEDAT               ;SAVE SENSOR TYPE LUNA TO EEPROM AT ADDRESS
0005D2 0E49           01040             MOVLW   'I'                 ;////
0005D4 6E05           01041             MOVWF   EEDAT               ;///
0005D6 C00E F006      01042             MOVFF   SENSOREEADR,EEADR   ;//
0005DA EC?? F???      01043             CALL    WRITETOEEPROM       ;/
                      01044             
0005DE 0100           01045             BANKSEL EEDAT               ;SAVE NUMBER OF DATA BYTES TO RECEIVE FROM SENSOR
                      01046             ARRAY   0X50,D'3'           ;ID[3] HOLDS NUMBER OF SENSORS, SAVE TO EEADR + 1
0005E0 6AEA               M             CLRF    FSR0H               ; CLEAR HIGH BYTE
0005E2 EE00 F050          M             LFSR    0,0X50              ; FSR0 = &vArray[0]
0005E6 5003               M             MOVF    D'3',W              ; INDEX, 0..255
0005E8 26E9               M             ADDWF   FSR0L,F             ; FSR0 = &vArray[vIndex]
0005EA 50EF           01047             MOVF    INDF0,0             ;/////
0005EC 6E05           01048             MOVWF   EEDAT               ;////
0005EE 0E01           01049             MOVLW   0X01                ;///
0005F0 1206           01050             IORWF   EEADR,1             ;//
0005F2 EC?? F???      01051             CALL    WRITETOEEPROM       ;/
                      01052             
0005F6 EF?? F???      01053             GOTO    DETECTCONTINUE      ;GOTO END OF PROCESS
                      01054             
0005FA                01055 DETECTCONTINUE
                      01056             
0005FA 0CFF           01057             RETLW   0XFF                ;RETURN SUCCESS CONDITION
                      01058 ;------END SAVE SENSOR----------------------------------------------------------
                      01059 ;------ERASE SENSORS------------------------------------------------------------
0005FC                01060 ERASESENSORS
                      01061 
0005FC 9602           01062             BCF     PFLAG,3             ;CLEAR PFLAG TO ONLY ENTER ONCE
                      01063            
0005FE 0E10           01064             MOVLW   0X10                ;SET COUNT TO FIRST SENSOR LOCATION
000600 6E13           01065             MOVWF   COUNT               ;/
000602 6A05           01066             CLRF    EEDAT               ;LOAD 0X00 TO BE PUT INTO SENSOR LOCATIONS
                      01067             
000604                01068 ERASELOOP
                      01069             
000604 0004           01070             CLRWDT                      ;CLEAR WATCHDOG TIMER, WRITING TO EEPROM TAKES A WHILE
                      01071             
000606 0100           01072             BANKSEL COUNT               ;LOAD NEXT SENSOR TO EEPROM LOCATION
000608 5013           01073             MOVF    COUNT,0             ;//
00060A 6E06           01074             MOVWF   EEADR               ;/
                      01075             
00060C 2A13           01076             INCF    COUNT,1             ;GOTO NEXT EEPROM LOCATION
                      01077             
00060E EC?? F???      01078             CALL    WRITETOEEPROM       ;ERASE CURRENT EEPROM LOCATION
                      01079             
000612 0100           01080             BANKSEL COUNT               ;STOP ERASING EEPROM AFTER LOCATION 0X22
000614 0E23           01081             MOVLW   0X23                ;///
000616 6213           01082             CPFSEQ  COUNT,0             ;//
000618 EF?? F???      01083             GOTO    ERASELOOP           ;/
                      01084             
00061C 010F           01085             BANKSEL LATA                ;SHOW 0X0F ON LEDS TO SHOW EEPROM ERASED
00061E 0E0F           01086             MOVLW   0X0F                ;//
000620 6E83           01087             MOVWF   LATA                ;/
MPASM 5.86       SENSORBOARDASSEMBLY_PCB.ASM   4-20-2022  13:02:34         PAGE 23


LOC  OBJECT CODE     LINE SOURCE TEXT
  VALUE

                      01088             
000622 0012           01089             RETURN
                      01090 ;------ERASE SENSORS------------------------------------------------------------
                      01091             
                      01092 ;------TMR2HANDLE---------------------------------------------------------------
000624                01093 TMR2HANDLE
000624 9C02           01094             BCF     PFLAG,6             ;CLEAR PERSONAL FLAG
                      01095             
000626 0E96           01096             MOVLW   D'150'              ;IF T2DELAY IS NOT GREATER THAN 150 INCREMENT T2DELAY
000628 6416           01097             CPFSGT  T2DELAY,0           ;//
00062A 2A16           01098             INCF    T2DELAY,1           ;/
                      01099             
00062C 0E96           01100             MOVLW   D'150'              ;ONCE DELAY IS >= 150 CALL T2TICK TO SHIFT LEDS
00062E 6016           01101             CPFSLT  T2DELAY,0           ;//
000630 EC?? F???      01102             CALL    T2TICK              ;/
                      01103             
000634 0012           01104             RETURN
                      01105 ;------END TMR2HANDLE-----------------------------------------------------------
                      01106 ;---------T2TICK----------------------------------------------------------------
000636                01107 T2TICK
000636 2A17           01108             INCF    T2COUNT,1           ;INCREMENT T2COUNT
000638 0E06           01109             MOVLW   D'6'                ;IF T2COUNT IS >= 6 CALL T2SHIFT
00063A 6017           01110             CPFSLT  T2COUNT,0           ;//
00063C EC?? F???      01111             CALL    T2SHIFT             ;/
                      01112             
000640 0012           01113             RETURN
                      01114 ;---------END T2TICK------------------------------------------------------------
                      01115 ;-------------T2SHIFT-----------------------------------------------------------
000642                01116 T2SHIFT
000642 6A17           01117             CLRF    T2COUNT             ;RESET T2COUNT
000644 90D8           01118             BCF     STATUS,C            ;CLEAR CARRY TO ONLY HAVE ONE BIT SHIFTING
000646 348D           01119             RLCF    PORTA,0             ;SHIFT PORTA LEFT BY 1
000648 6E83           01120             MOVWF   LATA                ;/
                      01121             
00064A 508D           01122             MOVF    PORTA,0             ;CARRY ONLY 1 BIT FROM MSB TO LSB
00064C B4D8           01123             BTFSC   STATUS,Z            ;//
00064E 8083           01124             BSF     LATA,0              ;/
                      01125             
000650 0012           01126             RETURN
                      01127 ;-------------END T2SHIFT-------------------------------------------------------
                      01128             
                      01129 ;------REQUESTSENSORDATA--------------------------------------------------------
000652                01130 REQUESTSENSORDATA
                      01131             
000652 9402           01132             BCF     PFLAG,2
                      01133             
                      01134             ;---DETERMINE THE LAST SENSOR CONNECTED-----------------------------
                      01135             
000654 0100           01136             BANKSEL LASTSENSOR          ;FIRST SENSOR IS ALLWAYS 0X10 (WILL INCREMENT TO 0X10)
000656 0E0E           01137             MOVLW   0X0E                ;///
000658 6E0F           01138             MOVWF   LASTSENSOR          ;//
00065A 6E13           01139             MOVWF   COUNT               ;/
                      01140             
MPASM 5.86       SENSORBOARDASSEMBLY_PCB.ASM   4-20-2022  13:02:34         PAGE 24


LOC  OBJECT CODE     LINE SOURCE TEXT
  VALUE

00065C 6A10           01141             CLRF    BYTECOUNT           ;CLEAR BYTE COUNT FOR A FRESH COUNT
                      01142             
00065E                01143 LASTSENSORLOOP
                      01144             
00065E 0100           01145             BANKSEL COUNT               ;INCREMENT TO THE NEXT ADDRESS
000660 2A13           01146             INCF    COUNT,1             ;//
000662 2A13           01147             INCF    COUNT,1             ;/
                      01148             
000664 5013           01149             MOVF    COUNT,0             ;LOAD NEW ADDRESS TO READ FROM EEPROM
000666 6E06           01150             MOVWF   EEADR               ;//
000668 EC?? F???      01151             CALL    READEEPROM          ;/
00066C 0E00           01152             MOVLW   0X00                ;IF READ VALUE IS EMPTY, DO NOT REASSGIN LASTSENSOR
00066E 6205           01153             CPFSEQ  EEDAT,0             ;//
000670 C013 F00F      01154             MOVFF   COUNT,LASTSENSOR    ;/
                      01155             
000674 0E1E           01156             MOVLW   0X1E                ;LAST VALUE TO EVALUATE IS 0X1E
000676 6213           01157             CPFSEQ  COUNT               ;//
000678 EF?? F???      01158             GOTO    LASTSENSORLOOP      ;/
                      01159             
00067C 0E0E           01160             MOVLW   0X0E                ;RESET COUNT TO FIRST SENSOR
00067E 6E13           01161             MOVWF   COUNT               ;/
                      01162             
                      01163             ;---READ DATA FROM ALL SENSORS--------------------------------------
                      01164             
000680                01165 READDATALOOP
                      01166             
000680 0100           01167             BANKSEL COUNT               ;GOTO NEXT SENSOR
000682 2A13           01168             INCF    COUNT,1             ;//
000684 2A13           01169             INCF    COUNT,1             ;/
                      01170             
000686 5013           01171             MOVF    COUNT,0             ;GET SENSOR ID FROM EEPROM
000688 6E06           01172             MOVWF   EEADR               ;///
00068A EC?? F???      01173             CALL    READEEPROM          ;//
00068E C005 F011      01174             MOVFF   EEDAT,SENSORID      ;/
                      01175             
000692 0E01           01176             MOVLW   0X01                ;GET NUMBER OF DISTANCE BYTES FROM EEPROM
000694 1013           01177             IORWF   COUNT,0             ;////
000696 6E06           01178             MOVWF   EEADR               ;///
000698 EC?? F???      01179             CALL    READEEPROM          ;//
00069C C005 F012      01180             MOVFF   EEDAT,DISTBYTES     ;/
                      01181             
0006A0 C013 F007      01182             MOVFF   COUNT,I2C2ADR       ;TRANSMIT KNOWN ADDRESS TO START CONVERSATION
0006A4 EC?? F???      01183             CALL    I2C2TXADDRESS       ;/
0006A8 0800           01184             SUBLW   0X00                ;CHECK IF ADDRESS TRANSMIT WAS SUCCESSFULL
0006AA B4D8           01185             BTFSC   STATUS,Z            ;//
0006AC EF?? F???      01186             GOTO    I2C2FAIL            ;/
                      01187             
0006B0 0100           01188             BANKSEL I2C2DAT             ;SEND 0X00 TO SELECT FIRST BYTE REGISTER
0006B2 0E00           01189             MOVLW   0X00                ;///
0006B4 6E08           01190             MOVWF   I2C2DAT             ;//
0006B6 EC?? F???      01191             CALL    I2C2TXDATA          ;/
0006BA 0800           01192             SUBLW   0X00                ;CHECK IF DATA TRANSMIT WAS SUCCESSFULL
0006BC B4D8           01193             BTFSC   STATUS,Z            ;//
MPASM 5.86       SENSORBOARDASSEMBLY_PCB.ASM   4-20-2022  13:02:34         PAGE 25


LOC  OBJECT CODE     LINE SOURCE TEXT
  VALUE

0006BE EF?? F???      01194             GOTO    I2C2FAIL            ;/
                      01195             
0006C2 EC?? F???      01196             CALL    I2C2STOP            ;END I2C CONVERSATION
                      01197             
                      01198             ;---REQUEST THREE BYTES OF DISTANCE DATA----------------------------
                      01199             
0006C6 0100           01200             BANKSEL I2C2ADR
0006C8 8007           01201             BSF     I2C2ADR,0           ;SET LSB FOR READ REQUEST
0006CA EC?? F???      01202             CALL    I2C2REQUESTFIRST    ;REQUEST FIRST BYTE (ADDRESS DID NOT CHANGE)
0006CE 0800           01203             SUBLW   0X00                ;CHECK IF DATA REQUEST WAS SUCCESSFULL
0006D0 B4D8           01204             BTFSC   STATUS,Z            ;//
0006D2 EF?? F???      01205             GOTO    I2C2FAIL            ;/
                      01206             
                      01207             ARRAY   0X60,0              ;SELECT ARRAY DISTDATA[0]
0006D6 6AEA               M             CLRF    FSR0H               ; CLEAR HIGH BYTE
0006D8 EE00 F060          M             LFSR    0,0X60              ; FSR0 = &vArray[0]
0006DC 5000               M             MOVF    0,W                 ; INDEX, 0..255
0006DE 26E9               M             ADDWF   FSR0L,F             ; FSR0 = &vArray[vIndex]
0006E0 0100           01208             BANKSEL I2C2RXDAT           ;STORE RECEIVED DATA IN DISTDATA[0]
0006E2 C009 FFEF      01209             MOVFF   I2C2RXDAT,INDF0     ;/
                      01210             
0006E6 EC?? F???      01211             CALL    I2C2REQUESTMID      ;REQUEST SECOND BYTE
0006EA 0800           01212             SUBLW   0X00                ;CHECK IF DATA REQUEST WAS SUCCESSFULL
0006EC B4D8           01213             BTFSC   STATUS,Z            ;//
0006EE EF?? F???      01214             GOTO    I2C2FAIL            ;/
                      01215             
                      01216             ARRAY   0X60,1              ;SELECT ARRAY DISTDATA[1]
0006F2 6AEA               M             CLRF    FSR0H               ; CLEAR HIGH BYTE
0006F4 EE00 F060          M             LFSR    0,0X60              ; FSR0 = &vArray[0]
0006F8 5001               M             MOVF    1,W                 ; INDEX, 0..255
0006FA 26E9               M             ADDWF   FSR0L,F             ; FSR0 = &vArray[vIndex]
0006FC 0100           01217             BANKSEL I2C2RXDAT           ;STORE RECEIVED DATA IN DISTDATA[1]
0006FE C009 FFEF      01218             MOVFF   I2C2RXDAT,INDF0     ;/
                      01219             
000702 EC?? F???      01220             CALL    I2C2REQUESTLAST     ;REQUEST THIRD BYTE
000706 0800           01221             SUBLW   0X00                ;CHECK IF DATA REQUEST WAS SUCCESSFULL
000708 B4D8           01222             BTFSC   STATUS,Z            ;//
00070A EF?? F???      01223             GOTO    I2C2FAIL            ;/
                      01224             
                      01225             ARRAY   0X60,2              ;SELECT ARRAY DISTDATA[2]
00070E 6AEA               M             CLRF    FSR0H               ; CLEAR HIGH BYTE
000710 EE00 F060          M             LFSR    0,0X60              ; FSR0 = &vArray[0]
000714 5002               M             MOVF    2,W                 ; INDEX, 0..255
000716 26E9               M             ADDWF   FSR0L,F             ; FSR0 = &vArray[vIndex]
000718 0100           01226             BANKSEL I2C2RXDAT           ;STORE RECEIVED DATA IN DISTDATA[2]
00071A C009 FFEF      01227             MOVFF   I2C2RXDAT,INDF0     ;/
                      01228             
00071E EC?? F???      01229             CALL    I2C2STOP            ;STOP I2C CONVERSATION
                      01230             
                      01231             ;---IF SENSOR IS LUNA, MAKE MAX VALUE 0XFF--------------------------
                      01232             
000722 0E49           01233             MOVLW   'I'                 ;IF SENSOR IS NOT INFRARED ASSUME IT IS LUNA
000724 6211           01234             CPFSEQ  SENSORID            ;//
MPASM 5.86       SENSORBOARDASSEMBLY_PCB.ASM   4-20-2022  13:02:34         PAGE 26


LOC  OBJECT CODE     LINE SOURCE TEXT
  VALUE

000726 EF?? F???      01235             GOTO    LUNAVALPROCESS      ;//
00072A EF?? F???      01236             GOTO    INFRVALPROCESS      ;/
                      01237             
                      01238             ;---CHECK IF ALL SENSORS HAVE BEEN READ FROM------------------------
                      01239             
00072E                01240 STOREEND
                      01241             
00072E 0100           01242             BANKSEL COUNT
000730 5013           01243             MOVF    COUNT,0             ;DO NOT REPEAT IF THIS WAS THE LAST SENSOR
000732 620F           01244             CPFSEQ  LASTSENSOR,0        ;//
000734 EF?? F???      01245             GOTO    READDATALOOP        ;/
                      01246 
000738 6AEA           01247             CLRF    FSR0H               ;
00073A 0E20           01248             MOVLW   0X20                ;
00073C 6EE9           01249             MOVWF   FSR0L               ;
00073E 0100           01250             BANKSEL BYTECOUNT           ;
000740 5010           01251             MOVF    BYTECOUNT,0         ;
000742 6EEF           01252             MOVWF   INDF0               ;
                      01253             
000744 010F           01254             BANKSEL LATA                ;SHOW THE NUMBER OF SENSORS THE BOARD WAS ABLE TO INTERFACE WITH
000746 6E83           01255             MOVWF   LATA                ;/
                      01256             
000748 0CFF           01257             RETLW   0XFF                ;RETURN SUCCESS CONDITION
                      01258             
                      01259 ;------END REQUESTSENSORDATA----------------------------------------------------
                      01260 ;---------LUNA VAL PROCESS------------------------------------------------------
00074A                01261 LUNAVALPROCESS
                      01262             
                      01263             ARRAY   0X60,D'1'   ;DO NOT CAP DISTANCE IF THERE WAS NO ROLLOVER
00074A 6AEA               M             CLRF    FSR0H               ; CLEAR HIGH BYTE
00074C EE00 F060          M             LFSR    0,0X60              ; FSR0 = &vArray[0]
000750 5001               M             MOVF    D'1',W              ; INDEX, 0..255
000752 26E9               M             ADDWF   FSR0L,F             ; FSR0 = &vArray[vIndex]
000754 0E00           01264             MOVLW   0X00                ;///
000756 62EF           01265             CPFSEQ  INDF0,0             ;//
000758 EC?? F???      01266             CALL    LUNAVALCAP          ;/
                      01267             
00075C 0100           01268             BANKSEL BYTECOUNT           ;
00075E 2A10           01269             INCF    BYTECOUNT,1         ;COUNT THIS BYTE
                      01270             
                      01271             ARRAY   0X60,0              ;GET DISTANCE DATA FROM DISTDATA ARRAY
000760 6AEA               M             CLRF    FSR0H               ; CLEAR HIGH BYTE
000762 EE00 F060          M             LFSR    0,0X60              ; FSR0 = &vArray[0]
000766 5000               M             MOVF    0,W                 ; INDEX, 0..255
000768 26E9               M             ADDWF   FSR0L,F             ; FSR0 = &vArray[vIndex]
00076A CFEF F014      01272             MOVFF   INDF0,DISTDATHOLD   ;/
                      01273             ARRAY   0X20,BYTECOUNT      ;SELECT I2C1REG ARRAY @ INDEX BYTECOUNT
00076E 6AEA               M             CLRF    FSR0H               ; CLEAR HIGH BYTE
000770 EE00 F020          M             LFSR    0,0X20              ; FSR0 = &vArray[0]
000774 5010               M             MOVF    BYTECOUNT,W         ; INDEX, 0..255
000776 26E9               M             ADDWF   FSR0L,F             ; FSR0 = &vArray[vIndex]
000778 C014 FFEF      01274             MOVFF   DISTDATHOLD,INDF0   ;STORE DIST DATA IN I2C1REGISTERS
                      01275             
MPASM 5.86       SENSORBOARDASSEMBLY_PCB.ASM   4-20-2022  13:02:34         PAGE 27


LOC  OBJECT CODE     LINE SOURCE TEXT
  VALUE

00077C EF?? F???      01276             GOTO    STOREEND
                      01277 ;---------END LUNA VAL PROCESS--------------------------------------------------
                      01278 ;------------LUNA VAL CAP-------------------------------------------------------
000780                01279 LUNAVALCAP
                      01280             ARRAY   0X60,D'0'   ;SET DISTANCE VALUE TO 0XFF IF THERE WAS ROLLOVER
000780 6AEA               M             CLRF    FSR0H               ; CLEAR HIGH BYTE
000782 EE00 F060          M             LFSR    0,0X60              ; FSR0 = &vArray[0]
000786 5000               M             MOVF    D'0',W              ; INDEX, 0..255
000788 26E9               M             ADDWF   FSR0L,F             ; FSR0 = &vArray[vIndex]
00078A 0EFF           01281             MOVLW   0XFF                ;//
00078C 6EEF           01282             MOVWF   INDF0               ;/
00078E 0012           01283             RETURN
                      01284 ;------------END LUNA VAL CAP---------------------------------------------------
                      01285 ;---------INFR VAL PROCESS------------------------------------------------------
000790                01286 INFRVALPROCESS
                      01287             
000790 EC?? F???      01288             CALL    INFRVALSTORE1       ;INFR BOARD WILL ALLWAYS HAVE AT LEAST 1 DIST BYTE
                      01289             
000794 0100           01290             BANKSEL DISTBYTES           ;IF THERE ARE LESS THAN 1 DIST BYTES DON'T REQUEST A SECOND 
000796 0E01           01291             MOVLW   0X01                ;///
000798 6012           01292             CPFSLT  DISTBYTES,0         ;//
00079A EC?? F???      01293             CALL    INFRVALSTORE2       ;/
                      01294             
00079E 0100           01295             BANKSEL DISTBYTES           ;IF THERE ARE LESS THAN 2 DIST BYTES DON'T REQUEST A THIRD
0007A0 0E02           01296             MOVLW   0X02                ;///
0007A2 6012           01297             CPFSLT  DISTBYTES,0         ;//
0007A4 EC?? F???      01298             CALL    INFRVALSTORE3       ;/
                      01299             
0007A8 EF?? F???      01300             GOTO    STOREEND
                      01301 ;---------END INFR VAL PROCESS--------------------------------------------------
                      01302 ;------------INFR VAL STORE1----------------------------------------------------
0007AC                01303 INFRVALSTORE1
0007AC 2A10           01304             INCF    BYTECOUNT,1         ;COUNT THIS BYTE
                      01305             ARRAY   0X60,0              ;GET DISTANCE DATA FROM DISTDATA ARRAY
0007AE 6AEA               M             CLRF    FSR0H               ; CLEAR HIGH BYTE
0007B0 EE00 F060          M             LFSR    0,0X60              ; FSR0 = &vArray[0]
0007B4 5000               M             MOVF    0,W                 ; INDEX, 0..255
0007B6 26E9               M             ADDWF   FSR0L,F             ; FSR0 = &vArray[vIndex]
0007B8 CFEF F014      01306             MOVFF   INDF0,DISTDATHOLD   ;/
                      01307             ARRAY   0X20,BYTECOUNT      ;SELECT I2C1REG ARRAY @ INDEX BYTECOUNT
0007BC 6AEA               M             CLRF    FSR0H               ; CLEAR HIGH BYTE
0007BE EE00 F020          M             LFSR    0,0X20              ; FSR0 = &vArray[0]
0007C2 5010               M             MOVF    BYTECOUNT,W         ; INDEX, 0..255
0007C4 26E9               M             ADDWF   FSR0L,F             ; FSR0 = &vArray[vIndex]
0007C6 C014 FFEF      01308             MOVFF   DISTDATHOLD,INDF0   ;STORE DIST DATA IN I2C1REGISTERS
0007CA 0012           01309             RETURN
                      01310 ;------------END INFR VAL STORE1------------------------------------------------
                      01311 ;------------INFR VAL STORE2----------------------------------------------------
0007CC                01312 INFRVALSTORE2
0007CC 2A10           01313             INCF    BYTECOUNT,1         ;COUNT THIS BYTE
                      01314             ARRAY   0X60,1              ;GET DISTANCE DATA FROM DISTDATA ARRAY
0007CE 6AEA               M             CLRF    FSR0H               ; CLEAR HIGH BYTE
0007D0 EE00 F060          M             LFSR    0,0X60              ; FSR0 = &vArray[0]
MPASM 5.86       SENSORBOARDASSEMBLY_PCB.ASM   4-20-2022  13:02:34         PAGE 28


LOC  OBJECT CODE     LINE SOURCE TEXT
  VALUE

0007D4 5001               M             MOVF    1,W                 ; INDEX, 0..255
0007D6 26E9               M             ADDWF   FSR0L,F             ; FSR0 = &vArray[vIndex]
0007D8 CFEF F014      01315             MOVFF   INDF0,DISTDATHOLD   ;/
                      01316             ARRAY   0X20,BYTECOUNT      ;SELECT I2C1REG ARRAY @ INDEX BYTECOUNT
0007DC 6AEA               M             CLRF    FSR0H               ; CLEAR HIGH BYTE
0007DE EE00 F020          M             LFSR    0,0X20              ; FSR0 = &vArray[0]
0007E2 5010               M             MOVF    BYTECOUNT,W         ; INDEX, 0..255
0007E4 26E9               M             ADDWF   FSR0L,F             ; FSR0 = &vArray[vIndex]
0007E6 C014 FFEF      01317             MOVFF   DISTDATHOLD,INDF0   ;STORE DIST DATA IN I2C1REGISTERS
0007EA 0012           01318             RETURN
                      01319 ;------------END INFR VAL STORE2------------------------------------------------
                      01320 ;------------INFR VAL STORE3----------------------------------------------------
0007EC                01321 INFRVALSTORE3
0007EC 2A10           01322             INCF    BYTECOUNT,1         ;COUNT THIS BYTE   
                      01323             ARRAY   0X60,2              ;GET DISTANCE DATA FROM DISTDATA ARRAY
0007EE 6AEA               M             CLRF    FSR0H               ; CLEAR HIGH BYTE
0007F0 EE00 F060          M             LFSR    0,0X60              ; FSR0 = &vArray[0]
0007F4 5002               M             MOVF    2,W                 ; INDEX, 0..255
0007F6 26E9               M             ADDWF   FSR0L,F             ; FSR0 = &vArray[vIndex]
0007F8 CFEF F014      01324             MOVFF   INDF0,DISTDATHOLD   ;/
                      01325             ARRAY   0X20,BYTECOUNT      ;SELECT I2C1REG ARRAY @ INDEX BYTECOUNT
0007FC 6AEA               M             CLRF    FSR0H               ; CLEAR HIGH BYTE
0007FE EE00 F020          M             LFSR    0,0X20              ; FSR0 = &vArray[0]
000802 5010               M             MOVF    BYTECOUNT,W         ; INDEX, 0..255
000804 26E9               M             ADDWF   FSR0L,F             ; FSR0 = &vArray[vIndex]
000806 C014 FFEF      01326             MOVFF   DISTDATHOLD,INDF0   ;STORE DIST DATA IN I2C1REGISTERS
00080A 0012           01327             RETURN
                      01328 ;------------END INFR VAL STORE3------------------------------------------------
                      01329 ;------SEARCH PROCESS-----------------------------------------------------------
00080C                01330 SEARCHPROCESS
00080C 9802           01331             BCF     PFLAG,4             ;CLEAR PFLAG TO ONLY ENTER ONCE
                      01332             
00080E EC?? F???      01333             CALL    I2C2SCAN            ;INITIATE SCAN PROCESS
000812 0800           01334             SUBLW   0X00                ;CHECK IF SCAN PROCESS WAS SUCCESSFULL
000814 B4D8           01335             BTFSC   STATUS,Z            ;//
000816 EF?? F???      01336             GOTO    SEARCHFAIL          ;/
                      01337             
00081A EC?? F???      01338             CALL    SAVESENSOR          ;INITIATE SAVE SENSOR PROCESS
00081E 0800           01339             SUBLW   0X00                ;CHECK IF SAVE SENSOR PROCESS WAS SUCCESSFULL
000820 B4D8           01340             BTFSC   STATUS,Z            ;//
000822 EF?? F???      01341             GOTO    SAVEFAIL            ;/
                      01342             
000826 0100           01343             BANKSEL SENSOREEADR         ;SHOW ADDRESS OF NEW SENSOR ON SUCCESS
000828 500E           01344             MOVF    SENSOREEADR,0       ;//
00082A 6E83           01345             MOVWF   LATA                ;/
                      01346             
00082C 0012           01347             RETURN
                      01348 ;------END SEARCH PROCESS-------------------------------------------------------
                      01349 ;------SEARCH FAIL--------------------------------------------------------------
00082E                01350 SEARCHFAIL
00082E 010F           01351             BANKSEL LATA                ;SHOW 0XEE IF SEARCH FAILED TO FIND SENSOR
000830 0EEE           01352             MOVLW   0XEE                ;//
000832 6E83           01353             MOVWF   LATA                ;/
MPASM 5.86       SENSORBOARDASSEMBLY_PCB.ASM   4-20-2022  13:02:34         PAGE 29


LOC  OBJECT CODE     LINE SOURCE TEXT
  VALUE

                      01354             
000834 0012           01355             RETURN
                      01356 ;------END SEARCH FAIL----------------------------------------------------------
                      01357 ;------SAVE FAIL----------------------------------------------------------------
000836                01358 SAVEFAIL
000836 010F           01359             BANKSEL LATA                ;SHOW 0XCC IF SENSOR COULD NOT BE SAVED
000838 0ECC           01360             MOVLW   0XCC                ;//
00083A 6E83           01361             MOVWF   LATA                ;/
                      01362             
00083C 0012           01363             RETURN
                      01364 ;------END SAVE FAIL------------------------------------------------------------
                      01365 ;------IOCHANDLE----------------------------------------------------------------
00083E                01366 IOCHANDLE
00083E 9A02           01367             BCF     PFLAG,5             ;CLEAR PFLAG TO ONLY ENTER ONCE
                      01368             
000840 010F           01369             BANKSEL PORTC               ;IF RC4 IS PRESSED SET PFLAG TO ERASE SENSORS
000842 B88F           01370             BTFSC   PORTC,4             ;//
000844 8602           01371             BSF     PFLAG,3             ;/
000846 B88F           01372             BTFSC   PORTC,4             ;ALSO CLEAR T2DELAY TO STOP LED SHIFTING
000848 6A16           01373             CLRF    T2DELAY             ;/
                      01374             
00084A 010F           01375             BANKSEL PORTC               ;IF RC5 IS PRESSED SET PFLAG TO START SEARCH PROCESS
00084C BA8F           01376             BTFSC   PORTC,5             ;//
00084E 8802           01377             BSF     PFLAG,4             ;/
000850 BA8F           01378             BTFSC   PORTC,5             ;ALSO CLEAR T2DELAY TO STOP LED SHIFTING
000852 6A16           01379             CLRF    T2DELAY             ;/
                      01380             
000854 0012           01381             RETURN
                      01382 ;------END IOCHANDLE------------------------------------------------------------
                      01383             
                      01384 ;===END FUNCTIONS===============================================================
                      01385 ;===MAINBEGIN===================================================================
000856                01386 MAINBEGIN
                      01387             
000856 0100           01388             BANKSEL PFLAG               ;PFLAG[6] IS LED SHIFTING PROCESS
000858 BC02           01389             BTFSC   PFLAG,6             ;//
00085A EC?? F???      01390             CALL    TMR2HANDLE          ;/
                      01391             
00085E 0100           01392             BANKSEL PFLAG               ;PFLAG[5] IS IOC HANDLE PROCESS
000860 BA02           01393             BTFSC   PFLAG,5             ;//
000862 EC?? F???      01394             CALL    IOCHANDLE           ;/
                      01395             
000866 0100           01396             BANKSEL PFLAG               ;PFLAG[4] IS SEARCH FOR NEW SENSOR FLAG
000868 B802           01397             BTFSC   PFLAG,4             ;//  
00086A EC?? F???      01398             CALL    SEARCHPROCESS       ;/
                      01399             
00086E 0100           01400             BANKSEL PFLAG               ;PFLAG[3] IS ERASE EEPROM FLAG
000870 B602           01401             BTFSC   PFLAG,3             ;//
000872 EC?? F???      01402             CALL    ERASESENSORS        ;/
                      01403             
000876 0100           01404             BANKSEL PFLAG               ;PFLAG[2] REQUESTS DATA FROM KNOWN SENSORS
000878 B402           01405             BTFSC   PFLAG,2             ;//
00087A EC?? F???      01406             CALL    REQUESTSENSORDATA   ;/
MPASM 5.86       SENSORBOARDASSEMBLY_PCB.ASM   4-20-2022  13:02:34         PAGE 30


LOC  OBJECT CODE     LINE SOURCE TEXT
  VALUE

                      01407             
00087E 0004           01408             CLRWDT                      ;CLEAR WATCHDOG TIMER
                      01409             
000880 EF?? F???      01410             GOTO    MAINBEGIN           ;MAIN LOOP END
                      01411 ;===END MAINBEGIN===============================================================
                      01412             
                      01413     END
MPASM 5.86       SENSORBOARDASSEMBLY_PCB.ASM   4-20-2022  13:02:34         PAGE 31


SYMBOL TABLE
  LABEL                             VALUE 

A                                 00000000
ABDEN                             00000000
ABDOVF                            00000007
ACC0                              00000000
ACC1                              00000001
ACC10                             00000002
ACC11                             00000003
ACC12                             00000004
ACC13                             00000005
ACC14                             00000006
ACC15                             00000007
ACC2                              00000002
ACC3                              00000003
ACC4                              00000004
ACC5                              00000005
ACC6                              00000006
ACC7                              00000007
ACC8                              00000000
ACC9                              00000001
ACCESS                            00000000
ACCM                              00000004
ACKDT                             00000005
ACKEN                             00000004
ACKSTAT                           00000006
ACKTIM                            00000007
ADACC                             00000F70
ADACC0                            00000000
ADACC1                            00000001
ADACC10                           00000002
ADACC11                           00000003
ADACC12                           00000004
ADACC13                           00000005
ADACC14                           00000006
ADACC15                           00000007
ADACC2                            00000002
ADACC3                            00000003
ADACC4                            00000004
ADACC5                            00000005
ADACC6                            00000006
ADACC7                            00000007
ADACC8                            00000000
ADACC9                            00000001
ADACCH                            00000F71
ADACCL                            00000F70
ADACLR                            00000003
ADACQ                             00000F5C
ADACQ0                            00000000
ADACQ1                            00000001
ADACQ2                            00000002
ADACQ3                            00000003
ADACQ4                            00000004
ADACQ5                            00000005
ADACQ6                            00000006
MPASM 5.86       SENSORBOARDASSEMBLY_PCB.ASM   4-20-2022  13:02:34         PAGE 32


SYMBOL TABLE
  LABEL                             VALUE 

ADACQ7                            00000007
ADACT                             00000F56
ADACT0                            00000000
ADACT1                            00000001
ADACT2                            00000002
ADACT3                            00000003
ADACT4                            00000004
ADACTPPS                          00000EAE
ADACTPPS0                         00000000
ADACTPPS1                         00000001
ADACTPPS2                         00000002
ADACTPPS3                         00000003
ADACTPPS4                         00000004
ADAOV                             00000007
ADCALC0                           00000004
ADCALC1                           00000005
ADCALC2                           00000006
ADCAP                             00000F5D
ADCAP0                            00000000
ADCAP1                            00000001
ADCAP2                            00000002
ADCAP3                            00000003
ADCAP4                            00000004
ADCLK                             00000F57
ADCMD                             00000005
ADCNT                             00000F67
ADCNT0                            00000000
ADCNT1                            00000001
ADCNT2                            00000002
ADCNT3                            00000003
ADCNT4                            00000004
ADCNT5                            00000005
ADCNT6                            00000006
ADCNT7                            00000007
ADCON0                            00000F60
ADCON1                            00000F59
ADCON2                            00000F5A
ADCON3                            00000F5B
ADCONT                            00000006
ADCRS0                            00000004
ADCRS1                            00000005
ADCRS2                            00000006
ADCS                              00000004
ADCS0                             00000000
ADCS1                             00000001
ADCS2                             00000002
ADCS3                             00000003
ADCS4                             00000004
ADCS5                             00000005
ADDEN                             00000003
ADDSEN                            00000000
ADERR                             00000F6E
ADERR0                            00000000
MPASM 5.86       SENSORBOARDASSEMBLY_PCB.ASM   4-20-2022  13:02:34         PAGE 33


SYMBOL TABLE
  LABEL                             VALUE 

ADERR1                            00000001
ADERR10                           00000002
ADERR11                           00000003
ADERR12                           00000004
ADERR13                           00000005
ADERR14                           00000006
ADERR15                           00000007
ADERR2                            00000002
ADERR3                            00000003
ADERR4                            00000004
ADERR5                            00000005
ADERR6                            00000006
ADERR7                            00000007
ADERR8                            00000000
ADERR9                            00000001
ADERRH                            00000F6F
ADERRL                            00000F6E
ADFLTR                            00000F72
ADFLTR0                           00000000
ADFLTR1                           00000001
ADFLTR10                          00000002
ADFLTR11                          00000003
ADFLTR12                          00000004
ADFLTR13                          00000005
ADFLTR14                          00000006
ADFLTR15                          00000007
ADFLTR2                           00000002
ADFLTR3                           00000003
ADFLTR4                           00000004
ADFLTR5                           00000005
ADFLTR6                           00000006
ADFLTR7                           00000007
ADFLTR8                           00000000
ADFLTR9                           00000001
ADFLTRH                           00000F73
ADFLTRL                           00000F72
ADFM                              00000002
ADFM0                             00000002
ADFVR0                            00000000
ADFVR1                            00000001
ADGO                              00000000
ADGPOL                            00000005
ADIE                              00000000
ADIF                              00000000
ADIP                              00000000
ADIPEN                            00000006
ADLTH                             00000F6A
ADLTH0                            00000000
ADLTH1                            00000001
ADLTH10                           00000002
ADLTH11                           00000003
ADLTH12                           00000004
ADLTH13                           00000005
MPASM 5.86       SENSORBOARDASSEMBLY_PCB.ASM   4-20-2022  13:02:34         PAGE 34


SYMBOL TABLE
  LABEL                             VALUE 

ADLTH14                           00000006
ADLTH15                           00000007
ADLTH2                            00000002
ADLTH3                            00000003
ADLTH4                            00000004
ADLTH5                            00000005
ADLTH6                            00000006
ADLTH7                            00000007
ADLTH8                            00000000
ADLTH9                            00000001
ADLTHH                            00000F6B
ADLTHL                            00000F6A
ADLTHR                            00000005
ADMATH                            00000004
ADMD0                             00000000
ADMD1                             00000001
ADMD2                             00000002
ADMSK1                            00000001
ADMSK2                            00000002
ADMSK3                            00000003
ADMSK4                            00000004
ADMSK5                            00000005
ADNREF                            00000004
ADOEN                             00000002
ADON                              00000007
ADOR                              00000002
ADPCH                             00000F5F
ADPCH0                            00000000
ADPCH1                            00000001
ADPCH2                            00000002
ADPCH3                            00000003
ADPCH4                            00000004
ADPCH5                            00000005
ADPPOL                            00000007
ADPRE                             00000F5E
ADPRE0                            00000000
ADPRE1                            00000001
ADPRE2                            00000002
ADPRE3                            00000003
ADPRE4                            00000004
ADPRE5                            00000005
ADPRE6                            00000006
ADPRE7                            00000007
ADPREF0                           00000000
ADPREF1                           00000001
ADPREV                            00000F61
ADPREV0                           00000000
ADPREV1                           00000001
ADPREV10                          00000002
ADPREV11                          00000003
ADPREV12                          00000004
ADPREV13                          00000005
ADPREV14                          00000006
MPASM 5.86       SENSORBOARDASSEMBLY_PCB.ASM   4-20-2022  13:02:34         PAGE 35


SYMBOL TABLE
  LABEL                             VALUE 

ADPREV15                          00000007
ADPREV2                           00000002
ADPREV3                           00000003
ADPREV4                           00000004
ADPREV5                           00000005
ADPREV6                           00000006
ADPREV7                           00000007
ADPREV8                           00000000
ADPREV9                           00000001
ADPREVH                           00000F62
ADPREVL                           00000F61
ADPSIS                            00000007
ADR0                              00000000
ADR1                              00000001
ADR2                              00000002
ADR3                              00000003
ADR4                              00000004
ADR5                              00000005
ADR6                              00000006
ADR7                              00000007
ADR8                              00000000
ADR9                              00000001
ADREF                             00000F58
ADRES                             00000F63
ADRES0                            00000000
ADRES1                            00000001
ADRES10                           00000002
ADRES11                           00000003
ADRES12                           00000004
ADRES13                           00000005
ADRES14                           00000006
ADRES15                           00000007
ADRES2                            00000002
ADRES3                            00000003
ADRES4                            00000004
ADRES5                            00000005
ADRES6                            00000006
ADRES7                            00000007
ADRES8                            00000000
ADRES9                            00000001
ADRESH                            00000F64
ADRESL                            00000F63
ADRPT                             00000F66
ADRPT0                            00000000
ADRPT1                            00000001
ADRPT2                            00000002
ADRPT3                            00000003
ADRPT4                            00000004
ADRPT5                            00000005
ADRPT6                            00000006
ADRPT7                            00000007
ADSOI                             00000003
ADSTAT                            00000F65
MPASM 5.86       SENSORBOARDASSEMBLY_PCB.ASM   4-20-2022  13:02:34         PAGE 36


SYMBOL TABLE
  LABEL                             VALUE 

ADSTAT0                           00000000
ADSTAT1                           00000001
ADSTAT2                           00000002
ADSTPT                            00000F68
ADSTPT0                           00000000
ADSTPT1                           00000001
ADSTPT10                          00000002
ADSTPT11                          00000003
ADSTPT12                          00000004
ADSTPT13                          00000005
ADSTPT14                          00000006
ADSTPT15                          00000007
ADSTPT2                           00000002
ADSTPT3                           00000003
ADSTPT4                           00000004
ADSTPT5                           00000005
ADSTPT6                           00000006
ADSTPT7                           00000007
ADSTPT8                           00000000
ADSTPT9                           00000001
ADSTPTH                           00000F69
ADSTPTL                           00000F68
ADTIE                             00000001
ADTIF                             00000001
ADTIP                             00000001
ADTMD0                            00000000
ADTMD1                            00000001
ADTMD2                            00000002
ADUTH                             00000F6C
ADUTH0                            00000000
ADUTH1                            00000001
ADUTH10                           00000002
ADUTH11                           00000003
ADUTH12                           00000004
ADUTH13                           00000005
ADUTH14                           00000006
ADUTH15                           00000007
ADUTH2                            00000002
ADUTH3                            00000003
ADUTH4                            00000004
ADUTH5                            00000005
ADUTH6                            00000006
ADUTH7                            00000007
ADUTH8                            00000000
ADUTH9                            00000001
ADUTHH                            00000F6D
ADUTHL                            00000F6C
ADUTHR                            00000006
AHEN                              00000001
ANSELA                            00000F11
ANSELA0                           00000000
ANSELA1                           00000001
ANSELA2                           00000002
MPASM 5.86       SENSORBOARDASSEMBLY_PCB.ASM   4-20-2022  13:02:34         PAGE 37


SYMBOL TABLE
  LABEL                             VALUE 

ANSELA3                           00000003
ANSELA4                           00000004
ANSELA5                           00000005
ANSELA6                           00000006
ANSELA7                           00000007
ANSELB                            00000F19
ANSELB0                           00000000
ANSELB1                           00000001
ANSELB2                           00000002
ANSELB3                           00000003
ANSELB4                           00000004
ANSELB5                           00000005
ANSELB6                           00000006
ANSELB7                           00000007
ANSELC                            00000F21
ANSELC0                           00000000
ANSELC1                           00000001
ANSELC2                           00000002
ANSELC3                           00000003
ANSELC4                           00000004
ANSELC5                           00000005
ANSELC6                           00000006
ANSELC7                           00000007
ARRAY                             
AS0E                              00000000
AS1E                              00000001
AS2E                              00000002
AS3E                              00000003
AS4E                              00000004
AS5E                              00000005
BANKED                            00000001
BAUD1CON                          00000F9F
BAUD2CON                          00000E9F
BAUDCON                           00000F9F
BAUDCON1                          00000F9F
BAUDCON2                          00000E9F
BAUDCTL                           00000F9F
BAUDCTL1                          00000F9F
BAUDCTL2                          00000E9F
BCL1IE                            00000001
BCL1IF                            00000001
BCL1IP                            00000001
BCL2IE                            00000003
BCL2IF                            00000003
BCL2IP                            00000003
BF                                00000000
BIT                               00000000
BOEN                              00000004
BOR                               00000000
BORCON                            00000EE0
BORRDY                            00000000
BRG16                             00000003
BRGH                              00000002
MPASM 5.86       SENSORBOARDASSEMBLY_PCB.ASM   4-20-2022  13:02:34         PAGE 38


SYMBOL TABLE
  LABEL                             VALUE 

BSR                               00000FE0
BUSY                              00000005
BYTECOUNT                         00000010
C                                 00000000
C1EN                              00000007
C1HYS                             00000001
C1IE                              00000000
C1IF                              00000000
C1INTN                            00000000
C1INTP                            00000001
C1IP                              00000000
C1NCH0                            00000000
C1NCH1                            00000001
C1NCH2                            00000002
C1OUT                             00000006
C1PCH0                            00000000
C1PCH1                            00000001
C1PCH2                            00000002
C1POL                             00000004
C1SYNC                            00000000
C1TSEL0                           00000000
C1TSEL1                           00000001
C2EN                              00000007
C2HYS                             00000001
C2IE                              00000001
C2IF                              00000001
C2INTN                            00000000
C2INTP                            00000001
C2IP                              00000001
C2NCH0                            00000000
C2NCH1                            00000001
C2NCH2                            00000002
C2OUT                             00000006
C2PCH0                            00000000
C2PCH1                            00000001
C2PCH2                            00000002
C2POL                             00000004
C2SYNC                            00000000
C2TSEL0                           00000002
C2TSEL1                           00000003
CASE0                             000002BE
CASE1                             000002D6
CASE2                             000002EA
CASEDEFAULT                       000002FE
CASEEND                           00000302
CCP1CAP                           00000FAD
CCP1CON                           00000FAC
CCP1CTS0                          00000000
CCP1CTS1                          00000001
CCP1EN                            00000007
CCP1FMT                           00000004
CCP1IE                            00000000
CCP1IF                            00000000
MPASM 5.86       SENSORBOARDASSEMBLY_PCB.ASM   4-20-2022  13:02:34         PAGE 39


SYMBOL TABLE
  LABEL                             VALUE 

CCP1IP                            00000000
CCP1MD                            00000000
CCP1MODE0                         00000000
CCP1MODE1                         00000001
CCP1MODE2                         00000002
CCP1MODE3                         00000003
CCP1OUT                           00000005
CCP1PPS                           00000EAF
CCP1PPS0                          00000000
CCP1PPS1                          00000001
CCP1PPS2                          00000002
CCP1PPS3                          00000003
CCP1PPS4                          00000004
CCP2CAP                           00000FA9
CCP2CON                           00000FA8
CCP2CTS0                          00000000
CCP2CTS1                          00000001
CCP2EN                            00000007
CCP2FMT                           00000004
CCP2IE                            00000001
CCP2IF                            00000001
CCP2IP                            00000001
CCP2MD                            00000001
CCP2MODE0                         00000000
CCP2MODE1                         00000001
CCP2MODE2                         00000002
CCP2MODE3                         00000003
CCP2OUT                           00000005
CCP2PPS                           00000EB0
CCP2PPS0                          00000000
CCP2PPS1                          00000001
CCP2PPS2                          00000002
CCP2PPS3                          00000003
CCP2PPS4                          00000004
CCPR1                             00000FAA
CCPR1H                            00000FAB
CCPR1L                            00000FAA
CCPR2                             00000FA6
CCPR2H                            00000FA7
CCPR2L                            00000FA6
CCPTMRS                           00000FAE
CDAFVR0                           00000002
CDAFVR1                           00000003
CDIV0                             00000000
CDIV1                             00000001
CDIV2                             00000002
CDIV3                             00000003
CHECK1                            0000056C
CHECK2                            00000578
CHPOL                             00000005
CHS0                              00000000
CHS1                              00000001
CHS2                              00000002
MPASM 5.86       SENSORBOARDASSEMBLY_PCB.ASM   4-20-2022  13:02:34         PAGE 40


SYMBOL TABLE
  LABEL                             VALUE 

CHSYNC                            00000004
CK1PPS                            00000EB6
CK2PPS                            00000E8E
CKE                               00000006
CKP                               00000004
CKPOL                             00000006
CKPPS                             00000EB6
CKPS0                             00000004
CKPS1                             00000005
CKPS2                             00000006
CKSYNC                            00000005
CLEARREGLOOP                      0000004A
CLK0                              00000000
CLK1                              00000001
CLK2                              00000002
CLKRCLK                           00000F3F
CLKRCLK0                          00000000
CLKRCLK1                          00000001
CLKRCLK2                          00000002
CLKRCON                           00000F3E
CLKRDC0                           00000003
CLKRDC1                           00000004
CLKRDIV0                          00000000
CLKRDIV1                          00000001
CLKRDIV2                          00000002
CLKREN                            00000007
CLKRMD                            00000001
CLPOL                             00000001
CLS0                              00000000
CLS1                              00000001
CLS2                              00000002
CLSYNC                            00000000
CM1CON0                           00000F39
CM1CON1                           00000F3A
CM1NCH                            00000F3B
CM1PCH                            00000F3C
CM2CON0                           00000F35
CM2CON1                           00000F36
CM2NCH                            00000F37
CM2PCH                            00000F38
CMOUT                             00000F3D
CMP1MD                            00000001
CMP2MD                            00000002
COSC0                             00000004
COSC1                             00000005
COSC2                             00000006
COUNT                             00000013
CPUDOZE                           00000ED7
CRCACC                            00000F76
CRCACCH                           00000F77
CRCACCL                           00000F76
CRCCON0                           00000F7C
CRCCON1                           00000F7D
MPASM 5.86       SENSORBOARDASSEMBLY_PCB.ASM   4-20-2022  13:02:34         PAGE 41


SYMBOL TABLE
  LABEL                             VALUE 

CRCDATA                           00000F74
CRCDATH                           00000F75
CRCDATL                           00000F74
CRCEN                             00000007
CRCGO                             00000006
CRCIE                             00000006
CRCIF                             00000006
CRCIP                             00000006
CRCMD                             00000004
CRCSHFT                           00000F78
CRCSHIFTH                         00000F79
CRCSHIFTL                         00000F78
CRCXOR                            00000F7A
CRCXORH                           00000F7B
CRCXORL                           00000F7A
CREN                              00000004
CS                                00000000
CS0                               00000000
CS1                               00000001
CS2                               00000002
CS3                               00000003
CSRC                              00000007
CSWHOLD                           00000007
CSWIE                             00000006
CSWIF                             00000006
CSWIP                             00000006
CTS0                              00000000
CTS1                              00000001
CWG1AS0                           00000F46
CWG1AS1                           00000F47
CWG1CLK                           00000F40
CWG1CLKCON                        00000F40
CWG1CON0                          00000F44
CWG1CON1                          00000F45
CWG1CS                            00000000
CWG1DBF                           00000F43
CWG1DBF0                          00000000
CWG1DBF1                          00000001
CWG1DBF2                          00000002
CWG1DBF3                          00000003
CWG1DBF4                          00000004
CWG1DBF5                          00000005
CWG1DBR                           00000F42
CWG1DBR0                          00000000
CWG1DBR1                          00000001
CWG1DBR2                          00000002
CWG1DBR3                          00000003
CWG1DBR4                          00000004
CWG1DBR5                          00000005
CWG1EN                            00000007
CWG1IE                            00000000
CWG1IF                            00000000
CWG1IN                            00000005
MPASM 5.86       SENSORBOARDASSEMBLY_PCB.ASM   4-20-2022  13:02:34         PAGE 42


SYMBOL TABLE
  LABEL                             VALUE 

CWG1INPPS0                        00000000
CWG1INPPS1                        00000001
CWG1INPPS2                        00000002
CWG1INPPS3                        00000003
CWG1INPPS4                        00000004
CWG1IP                            00000000
CWG1ISM                           00000F41
CWG1ISM0                          00000000
CWG1ISM1                          00000001
CWG1ISM2                          00000002
CWG1ISM3                          00000003
CWG1LD                            00000006
CWG1LSAC0                         00000002
CWG1LSAC1                         00000003
CWG1LSBD0                         00000004
CWG1LSBD1                         00000005
CWG1MD                            00000000
CWG1MODE0                         00000000
CWG1MODE1                         00000001
CWG1MODE2                         00000002
CWG1OVRA                          00000004
CWG1OVRB                          00000005
CWG1OVRC                          00000006
CWG1OVRD                          00000007
CWG1POLA                          00000000
CWG1POLB                          00000001
CWG1POLC                          00000002
CWG1POLD                          00000003
CWG1PPS                           00000EB1
CWG1REN                           00000006
CWG1SHUTDOWN                      00000007
CWG1STR                           00000F48
CWG1STRA                          00000000
CWG1STRB                          00000001
CWG1STRC                          00000002
CWG1STRD                          00000003
CWGIE                             00000000
CWGIF                             00000000
CWGINPPS                          00000EB1
CWGINPPS0                         00000000
CWGINPPS1                         00000001
CWGINPPS2                         00000002
CWGINPPS3                         00000003
CWGINPPS4                         00000004
CWGIP                             00000000
CWGMD                             00000000
DABORT                            00000004
DAC1CON0                          00000F33
DAC1CON1                          00000F34
DAC1EN                            00000007
DAC1NSS                           00000000
DAC1OE1                           00000005
DAC1OE2                           00000004
MPASM 5.86       SENSORBOARDASSEMBLY_PCB.ASM   4-20-2022  13:02:34         PAGE 43


SYMBOL TABLE
  LABEL                             VALUE 

DAC1PSS0                          00000002
DAC1PSS1                          00000003
DAC1R0                            00000000
DAC1R1                            00000001
DAC1R2                            00000002
DAC1R3                            00000003
DAC1R4                            00000004
DACMD                             00000006
DATA0                             00000000
DATA1                             00000001
DATA10                            00000002
DATA11                            00000003
DATA12                            00000004
DATA13                            00000005
DATA14                            00000006
DATA15                            00000007
DATA2                             00000002
DATA3                             00000003
DATA4                             00000004
DATA5                             00000005
DATA6                             00000006
DATA7                             00000007
DATA8                             00000000
DATA9                             00000001
DATA_ADDRESS                      00000005
DBF0                              00000000
DBF1                              00000001
DBF2                              00000002
DBF3                              00000003
DBF4                              00000004
DBF5                              00000005
DBR0                              00000000
DBR1                              00000001
DBR2                              00000002
DBR3                              00000003
DBR4                              00000004
DBR5                              00000005
DC                                00000001
DC0_CLKRCON                       00000003
DC0_PWM3DCL                       00000006
DC0_PWM4DCL                       00000006
DC1_CLKRCON                       00000004
DC1_PWM3DCL                       00000007
DC1_PWM4DCL                       00000007
DC2                               00000000
DC3                               00000001
DC4                               00000002
DC5                               00000003
DC6                               00000004
DC7                               00000005
DC8                               00000006
DC9                               00000007
DDRA                              TRISA
MPASM 5.86       SENSORBOARDASSEMBLY_PCB.ASM   4-20-2022  13:02:34         PAGE 44


SYMBOL TABLE
  LABEL                             VALUE 

DDRB                              TRISB
DDRC                              TRISC
DDRD                              TRISD
DDRE                              TRISE
DETECTCONTINUE                    000005FA
DHEN                              00000000
DISTBYTES                         00000012
DISTDATA                          00000060
DISTDATHOLD                       00000014
DISTDATIND                        00000015
DIV0                              00000000
DIV1                              00000001
DIV2                              00000002
DLEN0                             00000004
DLEN1                             00000005
DLEN2                             00000006
DLEN3                             00000007
DOE                               00000004
DONE                              00000000
DOZE0                             00000000
DOZE1                             00000001
DOZE2                             00000002
DOZEN                             00000006
DSMMD                             00000000
D_A                               00000005
D_NOT_A                           00000005
EEADR                             00000006
EEDAT                             00000005
EESCANLOOP                        00000466
EN                                00000007
ERASELOOP                         00000604
ERASESENSORS                      000005FC
EXTOEN                            00000007
EXTOR                             00000007
FAST                              00000001
FERR                              00000002
FMT                               00000004
FREE                              00000004
FRQ0                              00000000
FRQ1                              00000001
FRQ2                              00000002
FRQ3                              00000003
FSR0                              00000000
FSR0H                             00000FEA
FSR0L                             00000FE9
FSR1                              00000001
FSR1H                             00000FE2
FSR1L                             00000FE1
FSR2                              00000002
FSR2H                             00000FDA
FSR2L                             00000FD9
FULL                              00000000
FVRCON                            00000F31
MPASM 5.86       SENSORBOARDASSEMBLY_PCB.ASM   4-20-2022  13:02:34         PAGE 45


SYMBOL TABLE
  LABEL                             VALUE 

FVREN                             00000007
FVRMD                             00000006
FVRRDY                            00000006
G1EN                              00000007
GCEN                              00000007
GE                                00000007
GGO_NOT_DONE                      00000003
GIE                               00000007
GIEH                              00000007
GIEL                              00000006
GIE_GIEH                          00000007
GO_ADCON0                         00000000
GO_NOT_DONE                       00000000
GO_SCANCON0                       00000006
GPOL                              00000006
GSPM                              00000004
GSS0                              00000000
GSS1                              00000001
GSS2                              00000002
GSS3                              00000003
GTM                               00000005
GVAL                              00000002
HADR0                             00000000
HADR1                             00000001
HADR10                            00000002
HADR11                            00000003
HADR12                            00000004
HADR13                            00000005
HADR14                            00000006
HADR15                            00000007
HADR16                            00000000
HADR17                            00000001
HADR18                            00000002
HADR19                            00000003
HADR2                             00000002
HADR20                            00000004
HADR21                            00000005
HADR3                             00000003
HADR4                             00000004
HADR5                             00000005
HADR6                             00000006
HADR7                             00000007
HADR8                             00000000
HADR9                             00000001
HFOEN                             00000006
HFOR                              00000006
HLVDCON0                          00000F2F
HLVDCON1                          00000F30
HLVDEN                            00000007
HLVDIE                            00000007
HLVDIF                            00000007
HLVDINTH                          00000001
HLVDINTL                          00000000
MPASM 5.86       SENSORBOARDASSEMBLY_PCB.ASM   4-20-2022  13:02:34         PAGE 46


SYMBOL TABLE
  LABEL                             VALUE 

HLVDIP                            00000007
HLVDMD                            00000005
HLVDOUT                           00000005
HLVDRDY                           00000004
HLVDSEL0                          00000000
HLVDSEL1                          00000001
HLVDSEL2                          00000002
HLVDSEL3                          00000003
HYS                               00000001
I2C1ENDREAD                       00000304
I2C1ISR                           0000029A
I2C1REG                           00000020
I2C1REGIND                        0000000C
I2C1RXDAT                         0000000B
I2C1STATUS                        0000000A
I2C2ADR                           00000007
I2C2DAT                           00000008
I2C2FAIL                          00000374
I2C2REQUESTFIRST                  000003CA
I2C2REQUESTLAST                   00000416
I2C2REQUESTMID                    000003F6
I2C2RXDAT                         00000009
I2C2SCAN                          00000436
I2C2STOP                          00000380
I2C2TXADDRESS                     0000038C
I2C2TXDATA                        000003B0
I2C_DAT                           00000005
I2C_READ                          00000002
I2C_START                         00000003
I2C_STOP                          00000004
ID                                00000050
IDLEN                             00000007
IN                                00000005
INDF0                             00000FEF
INDF1                             00000FE7
INDF2                             00000FDF
INFDETECT                         000005D0
INFRVALPROCESS                    00000790
INFRVALSTORE1                     000007AC
INFRVALSTORE2                     000007CC
INFRVALSTORE3                     000007EC
INLVLA                            00000F0D
INLVLA0                           00000000
INLVLA1                           00000001
INLVLA2                           00000002
INLVLA3                           00000003
INLVLA4                           00000004
INLVLA5                           00000005
INLVLA6                           00000006
INLVLA7                           00000007
INLVLB                            00000F15
INLVLB0                           00000000
INLVLB1                           00000001
MPASM 5.86       SENSORBOARDASSEMBLY_PCB.ASM   4-20-2022  13:02:34         PAGE 47


SYMBOL TABLE
  LABEL                             VALUE 

INLVLB2                           00000002
INLVLB3                           00000003
INLVLB4                           00000004
INLVLB5                           00000005
INLVLB6                           00000006
INLVLB7                           00000007
INLVLC                            00000F1D
INLVLC0                           00000000
INLVLC1                           00000001
INLVLC2                           00000002
INLVLC3                           00000003
INLVLC4                           00000004
INLVLC5                           00000005
INLVLC6                           00000006
INLVLC7                           00000007
INLVLE                            00000F2A
INLVLE3                           00000003
INT0EDG                           00000000
INT0IE                            00000000
INT0IF                            00000000
INT0IP                            00000000
INT0PPS                           00000EA1
INT0PPS0                          00000000
INT0PPS1                          00000001
INT0PPS2                          00000002
INT0PPS3                          00000003
INT1EDG                           00000001
INT1IE                            00000001
INT1IF                            00000001
INT1IP                            00000001
INT1PPS                           00000EA2
INT1PPS0                          00000000
INT1PPS1                          00000001
INT1PPS2                          00000002
INT1PPS3                          00000003
INT2EDG                           00000002
INT2IE                            00000002
INT2IF                            00000002
INT2IP                            00000002
INT2PPS                           00000EA3
INT2PPS0                          00000000
INT2PPS1                          00000001
INT2PPS2                          00000002
INT2PPS3                          00000003
INTCON                            00000FF2
INTERRUPT                         00000238
INTERRUPTSETUP                    0000021A
INTH                              00000001
INTL                              00000000
INTM                              00000003
INTN                              00000000
INTP                              00000001
INVALID                           00000004
MPASM 5.86       SENSORBOARDASSEMBLY_PCB.ASM   4-20-2022  13:02:34         PAGE 48


SYMBOL TABLE
  LABEL                             VALUE 

IOCAF                             00000F0A
IOCAF0                            00000000
IOCAF1                            00000001
IOCAF2                            00000002
IOCAF3                            00000003
IOCAF4                            00000004
IOCAF5                            00000005
IOCAF6                            00000006
IOCAF7                            00000007
IOCAN                             00000F0B
IOCAN0                            00000000
IOCAN1                            00000001
IOCAN2                            00000002
IOCAN3                            00000003
IOCAN4                            00000004
IOCAN5                            00000005
IOCAN6                            00000006
IOCAN7                            00000007
IOCAP                             00000F0C
IOCAP0                            00000000
IOCAP1                            00000001
IOCAP2                            00000002
IOCAP3                            00000003
IOCAP4                            00000004
IOCAP5                            00000005
IOCAP6                            00000006
IOCAP7                            00000007
IOCBF                             00000F12
IOCBF0                            00000000
IOCBF1                            00000001
IOCBF2                            00000002
IOCBF3                            00000003
IOCBF4                            00000004
IOCBF5                            00000005
IOCBF6                            00000006
IOCBF7                            00000007
IOCBN                             00000F13
IOCBN0                            00000000
IOCBN1                            00000001
IOCBN2                            00000002
IOCBN3                            00000003
IOCBN4                            00000004
IOCBN5                            00000005
IOCBN6                            00000006
IOCBN7                            00000007
IOCBP                             00000F14
IOCBP0                            00000000
IOCBP1                            00000001
IOCBP2                            00000002
IOCBP3                            00000003
IOCBP4                            00000004
IOCBP5                            00000005
IOCBP6                            00000006
MPASM 5.86       SENSORBOARDASSEMBLY_PCB.ASM   4-20-2022  13:02:34         PAGE 49


SYMBOL TABLE
  LABEL                             VALUE 

IOCBP7                            00000007
IOCCF                             00000F1A
IOCCF0                            00000000
IOCCF1                            00000001
IOCCF2                            00000002
IOCCF3                            00000003
IOCCF4                            00000004
IOCCF5                            00000005
IOCCF6                            00000006
IOCCF7                            00000007
IOCCN                             00000F1B
IOCCN0                            00000000
IOCCN1                            00000001
IOCCN2                            00000002
IOCCN3                            00000003
IOCCN4                            00000004
IOCCN5                            00000005
IOCCN6                            00000006
IOCCN7                            00000007
IOCCP                             00000F1C
IOCCP0                            00000000
IOCCP1                            00000001
IOCCP2                            00000002
IOCCP3                            00000003
IOCCP4                            00000004
IOCCP5                            00000005
IOCCP6                            00000006
IOCCP7                            00000007
IOCEF                             00000F27
IOCEF3                            00000003
IOCEN                             00000F28
IOCEN3                            00000003
IOCEP                             00000F29
IOCEP3                            00000003
IOCHANDLE                         0000083E
IOCIE                             00000004
IOCIF                             00000004
IOCIP                             00000004
IOCMD                             00000000
IOCPROCESS                        0000028C
IOCSETUP                          00000200
IPEN                              00000005
IPR0                              00000EBA
IPR1                              00000EBB
IPR2                              00000EBC
IPR3                              00000EBD
IPR4                              00000EBE
IPR5                              00000EBF
IPR6                              00000EC0
IPR7                              00000EC1
LADR0                             00000000
LADR1                             00000001
LADR10                            00000002
MPASM 5.86       SENSORBOARDASSEMBLY_PCB.ASM   4-20-2022  13:02:34         PAGE 50


SYMBOL TABLE
  LABEL                             VALUE 

LADR11                            00000003
LADR12                            00000004
LADR13                            00000005
LADR14                            00000006
LADR15                            00000007
LADR16                            00000000
LADR17                            00000001
LADR18                            00000002
LADR19                            00000003
LADR2                             00000002
LADR20                            00000004
LADR21                            00000005
LADR3                             00000003
LADR4                             00000004
LADR5                             00000005
LADR6                             00000006
LADR7                             00000007
LADR8                             00000000
LADR9                             00000001
LASTSENSOR                        0000000F
LASTSENSORLOOP                    0000065E
LATA                              00000F83
LATA0                             00000000
LATA1                             00000001
LATA2                             00000002
LATA3                             00000003
LATA4                             00000004
LATA5                             00000005
LATA6                             00000006
LATA7                             00000007
LATB                              00000F84
LATB0                             00000000
LATB1                             00000001
LATB2                             00000002
LATB3                             00000003
LATB4                             00000004
LATB5                             00000005
LATB6                             00000006
LATB7                             00000007
LATC                              00000F85
LATC0                             00000000
LATC1                             00000001
LATC2                             00000002
LATC3                             00000003
LATC4                             00000004
LATC5                             00000005
LATC6                             00000006
LATC7                             00000007
LD                                00000006
LFOEN                             00000004
LFOR                              00000004
LSAC0                             00000002
LSAC1                             00000003
MPASM 5.86       SENSORBOARDASSEMBLY_PCB.ASM   4-20-2022  13:02:34         PAGE 51


SYMBOL TABLE
  LABEL                             VALUE 

LSBD0                             00000004
LSBD1                             00000005
LUNADETECT                        0000057A
LUNAVALCAP                        00000780
LUNAVALPROCESS                    0000074A
MAINBEGIN                         00000856
MC1OUT                            00000000
MC2OUT                            00000001
MDBIT                             00000000
MDCARH                            00000F55
MDCARHPPS                         00000EB3
MDCARHPPS0                        00000000
MDCARHPPS1                        00000001
MDCARHPPS2                        00000002
MDCARHPPS3                        00000003
MDCARHPPS4                        00000004
MDCARL                            00000F54
MDCARLPPS                         00000EB2
MDCARLPPS0                        00000000
MDCARLPPS1                        00000001
MDCARLPPS2                        00000002
MDCARLPPS3                        00000003
MDCARLPPS4                        00000004
MDCHPOL                           00000005
MDCHS0                            00000000
MDCHS1                            00000001
MDCHS2                            00000002
MDCHSYNC                          00000004
MDCLPOL                           00000001
MDCLS0                            00000000
MDCLS1                            00000001
MDCLS2                            00000002
MDCLSYNC                          00000000
MDCON0                            00000F51
MDCON1                            00000F52
MDEN                              00000007
MDOPOL                            00000004
MDOUT                             00000005
MDSRC                             00000F53
MDSRCPPS                          00000EB4
MDSRCPPS0                         00000000
MDSRCPPS1                         00000001
MDSRCPPS2                         00000002
MDSRCPPS3                         00000003
MDSRCPPS4                         00000004
MDSRCS0                           00000000
MDSRCS1                           00000001
MDSRCS2                           00000002
MDSRCS3                           00000003
MFOEN                             00000005
MFOR                              00000005
MODE0                             00000000
MODE1                             00000001
MPASM 5.86       SENSORBOARDASSEMBLY_PCB.ASM   4-20-2022  13:02:34         PAGE 52


SYMBOL TABLE
  LABEL                             VALUE 

MODE2                             00000002
MODE3                             00000003
MODE4                             00000004
MSK0                              00000000
MSK1                              00000001
MSK2                              00000002
MSK3                              00000003
MSK4                              00000004
MSK5                              00000005
MSK6                              00000006
MSK7                              00000007
MSSP1MD                           00000004
MSSP2MD                           00000005
N                                 00000004
NCH0                              00000000
NCH1                              00000001
NCH2                              00000002
NDIV0                             00000000
NDIV1                             00000001
NDIV2                             00000002
NDIV3                             00000003
NOSC0                             00000004
NOSC1                             00000005
NOSC2                             00000006
NOSCR                             00000003
NOT_A                             00000005
NOT_ADDRESS                       00000005
NOT_BOR                           00000000
NOT_PD                            00000005
NOT_POR                           00000001
NOT_RI                            00000002
NOT_RMCLR                         00000003
NOT_RWDT                          00000004
NOT_SYNC                          00000002
NOT_T1SYNC                        00000002
NOT_T3SYNC                        00000002
NOT_T5SYNC                        00000002
NOT_TO                            00000006
NOT_W                             00000002
NOT_WDTWV                         00000005
NOT_WRITE                         00000002
NSS                               00000000
NVMADR                            00000F7E
NVMADR0                           00000000
NVMADR1                           00000001
NVMADR2                           00000002
NVMADR3                           00000003
NVMADR4                           00000004
NVMADR5                           00000005
NVMADR6                           00000006
NVMADR7                           00000007
NVMADR8                           00000000
NVMADR9                           00000001
MPASM 5.86       SENSORBOARDASSEMBLY_PCB.ASM   4-20-2022  13:02:34         PAGE 53


SYMBOL TABLE
  LABEL                             VALUE 

NVMADRH                           00000F7F
NVMADRL                           00000F7E
NVMCON1                           00000F81
NVMCON2                           00000F82
NVMDAT                            00000F80
NVMDAT0                           00000000
NVMDAT1                           00000001
NVMDAT2                           00000002
NVMDAT3                           00000003
NVMDAT4                           00000004
NVMDAT5                           00000005
NVMDAT6                           00000006
NVMDAT7                           00000007
NVMIE                             00000005
NVMIF                             00000005
NVMIP                             00000005
NVMMD                             00000002
NVMREG0                           00000006
NVMREG1                           00000007
ODCA0                             00000000
ODCA1                             00000001
ODCA2                             00000002
ODCA3                             00000003
ODCA4                             00000004
ODCA5                             00000005
ODCA6                             00000006
ODCA7                             00000007
ODCB0                             00000000
ODCB1                             00000001
ODCB2                             00000002
ODCB3                             00000003
ODCB4                             00000004
ODCB5                             00000005
ODCB6                             00000006
ODCB7                             00000007
ODCC0                             00000000
ODCC1                             00000001
ODCC2                             00000002
ODCC3                             00000003
ODCC4                             00000004
ODCC5                             00000005
ODCC6                             00000006
ODCC7                             00000007
ODCONA                            00000F0F
ODCONB                            00000F17
ODCONC                            00000F1F
OE1                               00000005
OE2                               00000004
OERR                              00000001
ON_T1CON                          00000000
ON_T2CON                          00000007
ON_T3CON                          00000000
ON_T4CON                          00000007
MPASM 5.86       SENSORBOARDASSEMBLY_PCB.ASM   4-20-2022  13:02:34         PAGE 54


SYMBOL TABLE
  LABEL                             VALUE 

ON_T5CON                          00000000
ON_T6CON                          00000007
OPOL                              00000004
ORDY                              00000004
OSCCON1                           00000ED8
OSCCON2                           00000ED9
OSCCON3                           00000EDA
OSCEN                             00000EDC
OSCFIE                            00000007
OSCFIF                            00000007
OSCFIP                            00000007
OSCFRQ                            00000EDE
OSCSTAT                           00000EDB
OSCSTAT1                          00000EDB
OSCTUNE                           00000EDD
OUTPS0                            00000000
OUTPS1                            00000001
OUTPS2                            00000002
OUTPS3                            00000003
OUT_CCP1CON                       00000005
OUT_CCP2CON                       00000005
OUT_CM1CON0                       00000006
OUT_CM2CON0                       00000006
OUT_HLVDCON0                      00000005
OUT_MDCON0                        00000005
OUT_PWM3CON                       00000005
OUT_PWM4CON                       00000005
OUT_ZCDCON                        00000005
OV                                00000003
OVRA                              00000004
OVRB                              00000005
OVRC                              00000006
OVRD                              00000007
P                                 00000004
P3TSEL0                           00000004
P3TSEL1                           00000005
P4TSEL0                           00000006
P4TSEL1                           00000007
PC                                00000FF9
PCH0                              00000000
PCH1                              00000001
PCH2                              00000002
PCIE                              00000006
PCL                               00000FF9
PCLATH                            00000FFA
PCLATU                            00000FFB
PCON0                             00000FD7
PD                                00000005
PEIE                              00000006
PEIE_GIEL                         00000006
PEN                               00000002
PFLAG                             00000002
PIE0                              00000EC2
MPASM 5.86       SENSORBOARDASSEMBLY_PCB.ASM   4-20-2022  13:02:34         PAGE 55


SYMBOL TABLE
  LABEL                             VALUE 

PIE1                              00000EC3
PIE2                              00000EC4
PIE3                              00000EC5
PIE4                              00000EC6
PIE5                              00000EC7
PIE6                              00000EC8
PIE7                              00000EC9
PIR0                              00000ECA
PIR1                              00000ECB
PIR2                              00000ECC
PIR3                              00000ECD
PIR4                              00000ECE
PIR5                              00000ECF
PIR6                              00000ED0
PIR7                              00000ED1
PLEN0                             00000000
PLEN1                             00000001
PLEN2                             00000002
PLEN3                             00000003
PLLR                              00000000
PLUSW0                            00000FEB
PLUSW1                            00000FE3
PLUSW2                            00000FDB
PMD0                              00000EE1
PMD1                              00000EE2
PMD2                              00000EE3
PMD3                              00000EE4
PMD4                              00000EE5
PMD5                              00000EE6
POL                               00000004
POLA                              00000000
POLB                              00000001
POLC                              00000002
POLD                              00000003
POR                               00000001
PORT                              00000003
PORTA                             00000F8D
PORTB                             00000F8E
PORTC                             00000F8F
PORTE                             00000F91
POSTDEC0                          00000FED
POSTDEC1                          00000FE5
POSTDEC2                          00000FDD
POSTINC0                          00000FEE
POSTINC1                          00000FE6
POSTINC2                          00000FDE
PPSLOCK                           00000EA0
PPSLOCKED                         00000000
PR0                               00000FD4
PR1                               00000FD0
PR2                               00000FBC
PR3                               00000FCA
PR4                               00000FB6
MPASM 5.86       SENSORBOARDASSEMBLY_PCB.ASM   4-20-2022  13:02:34         PAGE 56


SYMBOL TABLE
  LABEL                             VALUE 

PR5                               00000FC4
PR6                               00000FB0
PREINC0                           00000FEC
PREINC1                           00000FE4
PREINC2                           00000FDC
PROD                              00000FF3
PRODH                             00000FF4
PRODL                             00000FF3
PROGRAMMODE                       00000100
PSCNT0                            00000000
PSCNT1                            00000001
PSCNT10                           00000002
PSCNT11                           00000003
PSCNT12                           00000004
PSCNT13                           00000005
PSCNT14                           00000006
PSCNT15                           00000007
PSCNT16                           00000000
PSCNT17                           00000001
PSCNT2                            00000002
PSCNT3                            00000003
PSCNT4                            00000004
PSCNT5                            00000005
PSCNT6                            00000006
PSCNT7                            00000007
PSCNT8                            00000000
PSCNT9                            00000001
PSS0                              00000002
PSS1                              00000003
PSYNC                             00000007
PWM3CON                           00000FA5
PWM3DC                            00000FA3
PWM3DC0                           00000006
PWM3DC1                           00000007
PWM3DC2                           00000000
PWM3DC3                           00000001
PWM3DC4                           00000002
PWM3DC5                           00000003
PWM3DC6                           00000004
PWM3DC7                           00000005
PWM3DC8                           00000006
PWM3DC9                           00000007
PWM3DCH                           00000FA4
PWM3DCL                           00000FA3
PWM3EN                            00000007
PWM3MD                            00000002
PWM3OUT                           00000005
PWM3POL                           00000004
PWM4CON                           00000FA2
PWM4DC                            00000FA0
PWM4DC0                           00000006
PWM4DC1                           00000007
PWM4DC2                           00000000
MPASM 5.86       SENSORBOARDASSEMBLY_PCB.ASM   4-20-2022  13:02:34         PAGE 57


SYMBOL TABLE
  LABEL                             VALUE 

PWM4DC3                           00000001
PWM4DC4                           00000002
PWM4DC5                           00000003
PWM4DC6                           00000004
PWM4DC7                           00000005
PWM4DC8                           00000006
PWM4DC9                           00000007
PWM4DCH                           00000FA1
PWM4DCL                           00000FA0
PWM4EN                            00000007
PWM4MD                            00000003
PWM4OUT                           00000005
PWM4POL                           00000004
PWMPW0                            00000006
PWMPW1                            00000007
PWMPW2                            00000000
PWMPW3                            00000001
PWMPW4                            00000002
PWMPW5                            00000003
PWMPW6                            00000004
PWMPW7                            00000005
PWMPW8                            00000006
PWMPW9                            00000007
RA0                               00000000
RA0PPS                            00000EE7
RA0PPS0                           00000000
RA0PPS1                           00000001
RA0PPS2                           00000002
RA0PPS3                           00000003
RA0PPS4                           00000004
RA1                               00000001
RA1PPS                            00000EE8
RA1PPS0                           00000000
RA1PPS1                           00000001
RA1PPS2                           00000002
RA1PPS3                           00000003
RA1PPS4                           00000004
RA2                               00000002
RA2PPS                            00000EE9
RA2PPS0                           00000000
RA2PPS1                           00000001
RA2PPS2                           00000002
RA2PPS3                           00000003
RA2PPS4                           00000004
RA3                               00000003
RA3PPS                            00000EEA
RA3PPS0                           00000000
RA3PPS1                           00000001
RA3PPS2                           00000002
RA3PPS3                           00000003
RA3PPS4                           00000004
RA4                               00000004
RA4PPS                            00000EEB
MPASM 5.86       SENSORBOARDASSEMBLY_PCB.ASM   4-20-2022  13:02:34         PAGE 58


SYMBOL TABLE
  LABEL                             VALUE 

RA4PPS0                           00000000
RA4PPS1                           00000001
RA4PPS2                           00000002
RA4PPS3                           00000003
RA4PPS4                           00000004
RA5                               00000005
RA5PPS                            00000EEC
RA5PPS0                           00000000
RA5PPS1                           00000001
RA5PPS2                           00000002
RA5PPS3                           00000003
RA5PPS4                           00000004
RA6                               00000006
RA6PPS                            00000EED
RA6PPS0                           00000000
RA6PPS1                           00000001
RA6PPS2                           00000002
RA6PPS3                           00000003
RA6PPS4                           00000004
RA7                               00000007
RA7PPS                            00000EEE
RA7PPS0                           00000000
RA7PPS1                           00000001
RA7PPS2                           00000002
RA7PPS3                           00000003
RA7PPS4                           00000004
RB0                               00000000
RB0PPS                            00000EEF
RB0PPS0                           00000000
RB0PPS1                           00000001
RB0PPS2                           00000002
RB0PPS3                           00000003
RB0PPS4                           00000004
RB1                               00000001
RB1PPS                            00000EF0
RB1PPS0                           00000000
RB1PPS1                           00000001
RB1PPS2                           00000002
RB1PPS3                           00000003
RB1PPS4                           00000004
RB2                               00000002
RB2PPS                            00000EF1
RB2PPS0                           00000000
RB2PPS1                           00000001
RB2PPS2                           00000002
RB2PPS3                           00000003
RB2PPS4                           00000004
RB3                               00000003
RB3PPS                            00000EF2
RB3PPS0                           00000000
RB3PPS1                           00000001
RB3PPS2                           00000002
RB3PPS3                           00000003
MPASM 5.86       SENSORBOARDASSEMBLY_PCB.ASM   4-20-2022  13:02:34         PAGE 59


SYMBOL TABLE
  LABEL                             VALUE 

RB3PPS4                           00000004
RB4                               00000004
RB4PPS                            00000EF3
RB4PPS0                           00000000
RB4PPS1                           00000001
RB4PPS2                           00000002
RB4PPS3                           00000003
RB4PPS4                           00000004
RB5                               00000005
RB5PPS                            00000EF4
RB5PPS0                           00000000
RB5PPS1                           00000001
RB5PPS2                           00000002
RB5PPS3                           00000003
RB5PPS4                           00000004
RB6                               00000006
RB6PPS                            00000EF5
RB6PPS0                           00000000
RB6PPS1                           00000001
RB6PPS2                           00000002
RB6PPS3                           00000003
RB6PPS4                           00000004
RB7                               00000007
RB7PPS                            00000EF6
RB7PPS0                           00000000
RB7PPS1                           00000001
RB7PPS2                           00000002
RB7PPS3                           00000003
RB7PPS4                           00000004
RC0                               00000000
RC0PPS                            00000EF7
RC0PPS0                           00000000
RC0PPS1                           00000001
RC0PPS2                           00000002
RC0PPS3                           00000003
RC0PPS4                           00000004
RC1                               00000001
RC1IE                             00000005
RC1IF                             00000005
RC1IP                             00000005
RC1PPS                            00000EF8
RC1PPS0                           00000000
RC1PPS1                           00000001
RC1PPS2                           00000002
RC1PPS3                           00000003
RC1PPS4                           00000004
RC1REG                            00000F99
RC1STA                            00000F9D
RC2                               00000002
RC2IE                             00000007
RC2IF                             00000007
RC2IP                             00000007
RC2PPS                            00000EF9
MPASM 5.86       SENSORBOARDASSEMBLY_PCB.ASM   4-20-2022  13:02:34         PAGE 60


SYMBOL TABLE
  LABEL                             VALUE 

RC2PPS0                           00000000
RC2PPS1                           00000001
RC2PPS2                           00000002
RC2PPS3                           00000003
RC2PPS4                           00000004
RC2REG                            00000E99
RC2STA                            00000E9D
RC3                               00000003
RC3PPS                            00000EFA
RC3PPS0                           00000000
RC3PPS1                           00000001
RC3PPS2                           00000002
RC3PPS3                           00000003
RC3PPS4                           00000004
RC4                               00000004
RC4PPS                            00000EFB
RC4PPS0                           00000000
RC4PPS1                           00000001
RC4PPS2                           00000002
RC4PPS3                           00000003
RC4PPS4                           00000004
RC5                               00000005
RC5PPS                            00000EFC
RC5PPS0                           00000000
RC5PPS1                           00000001
RC5PPS2                           00000002
RC5PPS3                           00000003
RC5PPS4                           00000004
RC6                               00000006
RC6PPS                            00000EFD
RC6PPS0                           00000000
RC6PPS1                           00000001
RC6PPS2                           00000002
RC6PPS3                           00000003
RC6PPS4                           00000004
RC7                               00000007
RC7PPS                            00000EFE
RC7PPS0                           00000000
RC7PPS1                           00000001
RC7PPS2                           00000002
RC7PPS3                           00000003
RC7PPS4                           00000004
RCEN                              00000003
RCIDL                             00000006
RCREG                             00000F99
RCREG1                            00000F99
RCREG2                            00000E99
RCSTA                             00000F9D
RCSTA1                            00000F9D
RCSTA2                            00000E9D
RD                                00000000
RD16                              00000001
RDY_FVRCON                        00000006
MPASM 5.86       SENSORBOARDASSEMBLY_PCB.ASM   4-20-2022  13:02:34         PAGE 61


SYMBOL TABLE
  LABEL                             VALUE 

RDY_HLVDCON0                      00000004
RE3                               00000003
READDATALOOP                      00000680
READEEPROM                        0000035A
READ_WRITE                        00000002
REN                               00000006
REQUESTSENSORDATA                 00000652
RI                                00000002
RMCLR                             00000003
ROI                               00000005
RSEL0                             00000000
RSEL1                             00000001
RSEL2                             00000002
RSEL3                             00000003
RSEN                              00000001
RWDT                              00000004
RX1PPS                            00000EB5
RX2PPS                            00000E8D
RX9                               00000006
RX9D                              00000000
RXPPS                             00000EB5
R_NOT_W                           00000002
R_W                               00000002
S                                 00000003
SAVEFAIL                          00000836
SAVESENSOR                        00000460
SBCDE                             00000002
SBOREN                            00000007
SCANADR                           0000000D
SCANBUSY                          00000005
SCANCON0                          00000F4F
SCANEN                            00000007
SCANGO                            00000006
SCANHADR                          00000F4C
SCANHADR0                         00000000
SCANHADR1                         00000001
SCANHADR10                        00000002
SCANHADR11                        00000003
SCANHADR12                        00000004
SCANHADR13                        00000005
SCANHADR14                        00000006
SCANHADR15                        00000007
SCANHADR16                        00000000
SCANHADR17                        00000001
SCANHADR18                        00000002
SCANHADR19                        00000003
SCANHADR2                         00000002
SCANHADR20                        00000004
SCANHADR21                        00000005
SCANHADR3                         00000003
SCANHADR4                         00000004
SCANHADR5                         00000005
SCANHADR6                         00000006
MPASM 5.86       SENSORBOARDASSEMBLY_PCB.ASM   4-20-2022  13:02:34         PAGE 62


SYMBOL TABLE
  LABEL                             VALUE 

SCANHADR7                         00000007
SCANHADR8                         00000000
SCANHADR9                         00000001
SCANHADRH                         00000F4D
SCANHADRL                         00000F4C
SCANHADRU                         00000F4E
SCANIE                            00000007
SCANIF                            00000007
SCANINTM                          00000003
SCANINVALID                       00000004
SCANIP                            00000007
SCANLADR                          00000F49
SCANLADR0                         00000000
SCANLADR1                         00000001
SCANLADR10                        00000002
SCANLADR11                        00000003
SCANLADR12                        00000004
SCANLADR13                        00000005
SCANLADR14                        00000006
SCANLADR15                        00000007
SCANLADR16                        00000000
SCANLADR17                        00000001
SCANLADR18                        00000002
SCANLADR19                        00000003
SCANLADR2                         00000002
SCANLADR20                        00000004
SCANLADR21                        00000005
SCANLADR3                         00000003
SCANLADR4                         00000004
SCANLADR5                         00000005
SCANLADR6                         00000006
SCANLADR7                         00000007
SCANLADR8                         00000000
SCANLADR9                         00000001
SCANLADRH                         00000F4A
SCANLADRL                         00000F49
SCANLADRU                         00000F4B
SCANLOOP                          0000043C
SCANMD                            00000003
SCANMODE0                         00000000
SCANMODE1                         00000001
SCANTRIG                          00000F50
SCANTSEL0                         00000000
SCANTSEL1                         00000001
SCANTSEL2                         00000002
SCANTSEL3                         00000003
SCIE                              00000005
SCKP                              00000004
SDAHT                             00000003
SEARCHFAIL                        0000082E
SEARCHPROCESS                     0000080C
SEL0                              00000000
SEL1                              00000001
MPASM 5.86       SENSORBOARDASSEMBLY_PCB.ASM   4-20-2022  13:02:34         PAGE 63


SYMBOL TABLE
  LABEL                             VALUE 

SEL2                              00000002
SEL3                              00000003
SENDB                             00000003
SENSOREEADR                       0000000E
SENSORID                          00000011
SEN_SSP1CON2                      00000000
SEN_SSP2CON2                      00000000
SEN_WDTCON0                       00000000
SEN_ZCDCON                        00000007
SETUP                             0000000C
SHFT0                             00000000
SHFT1                             00000001
SHFT10                            00000002
SHFT11                            00000003
SHFT12                            00000004
SHFT13                            00000005
SHFT14                            00000006
SHFT15                            00000007
SHFT2                             00000002
SHFT3                             00000003
SHFT4                             00000004
SHFT5                             00000005
SHFT6                             00000006
SHFT7                             00000007
SHFT8                             00000000
SHFT9                             00000001
SHIFTM                            00000001
SHUTDOWN                          00000007
SLAVESENDDAT                      0000030E
SLRA0                             00000000
SLRA1                             00000001
SLRA2                             00000002
SLRA3                             00000003
SLRA4                             00000004
SLRA5                             00000005
SLRA6                             00000006
SLRA7                             00000007
SLRB0                             00000000
SLRB1                             00000001
SLRB2                             00000002
SLRB3                             00000003
SLRB4                             00000004
SLRB5                             00000005
SLRB6                             00000006
SLRB7                             00000007
SLRC0                             00000000
SLRC1                             00000001
SLRC2                             00000002
SLRC3                             00000003
SLRC4                             00000004
SLRC5                             00000005
SLRC6                             00000006
SLRC7                             00000007
MPASM 5.86       SENSORBOARDASSEMBLY_PCB.ASM   4-20-2022  13:02:34         PAGE 64


SYMBOL TABLE
  LABEL                             VALUE 

SLRCONA                           00000F0E
SLRCONB                           00000F16
SLRCONC                           00000F1E
SMP                               00000007
SOR                               00000003
SOSCEN                            00000003
SOSCPWR                           00000006
SP0                               00000000
SP1                               00000001
SP1BRG                            00000F9B
SP1BRGH                           00000F9C
SP1BRGL                           00000F9B
SP2                               00000002
SP2BRG                            00000E9B
SP2BRGH                           00000E9C
SP2BRGL                           00000E9B
SP3                               00000003
SP4                               00000004
SP5                               00000005
SPBRG                             00000F9B
SPBRG1                            00000F9B
SPBRG2                            00000E9B
SPBRGH                            00000F9C
SPBRGH1                           00000F9C
SPBRGH2                           00000E9C
SPBRGL                            00000F9B
SPEN                              00000007
SRCS0                             00000000
SRCS1                             00000001
SRCS2                             00000002
SRCS3                             00000003
SREN                              00000005
SSP1ADD                           00000F93
SSP1BUF                           00000F92
SSP1CLKPPS                        00000EB7
SSP1CON1                          00000F96
SSP1CON2                          00000F97
SSP1CON3                          00000F98
SSP1DATPPS                        00000EB8
SSP1IE                            00000000
SSP1IF                            00000000
SSP1IP                            00000000
SSP1MSK                           00000F94
SSP1SETUP                         0000019C
SSP1SSPPS                         00000EB9
SSP1STAT                          00000F95
SSP2ADD                           00000E93
SSP2BUF                           00000E92
SSP2CLKPPS                        00000E8F
SSP2CON1                          00000E96
SSP2CON2                          00000E97
SSP2CON3                          00000E98
SSP2DATPPS                        00000E90
MPASM 5.86       SENSORBOARDASSEMBLY_PCB.ASM   4-20-2022  13:02:34         PAGE 65


SYMBOL TABLE
  LABEL                             VALUE 

SSP2IE                            00000002
SSP2IF                            00000002
SSP2IP                            00000002
SSP2MSK                           00000E94
SSP2SETUP                         000001DE
SSP2SSPPS                         00000E91
SSP2STAT                          00000E95
SSPCLKPPS                         00000EB7
SSPDATPPS                         00000EB8
SSPEN                             00000005
SSPM0                             00000000
SSPM1                             00000001
SSPM2                             00000002
SSPM3                             00000003
SSPOV                             00000006
SSPSSPPS                          00000EB9
STANDARDMODE                      00000118
STATE                             00000002
STATUS                            00000FD8
STATUSSAVE                        00000001
STKOVF                            00000007
STKPTR                            00000FFC
STKPTR0                           00000000
STKPTR1                           00000001
STKPTR2                           00000002
STKPTR3                           00000003
STKPTR4                           00000004
STKPTR5                           00000005
STKUNF                            00000006
STOREEND                          0000072E
STRA                              00000000
STRB                              00000001
STRC                              00000002
STRD                              00000003
SWDTEN                            00000000
SYNC_CM1CON0                      00000000
SYNC_CM2CON0                      00000000
SYNC_TX1STA                       00000004
SYNC_TX2STA                       00000004
SYNC_TXSTA                        00000004
SYNC_TXSTA1                       00000004
SYNC_TXSTA2                       00000004
SYSCMD                            00000007
T016BIT                           00000004
T0ASYNC                           00000004
T0CKIPPS                          00000EA4
T0CKIPPS0                         00000000
T0CKIPPS1                         00000001
T0CKIPPS2                         00000002
T0CKIPPS3                         00000003
T0CKPS0                           00000000
T0CKPS1                           00000001
T0CKPS2                           00000002
MPASM 5.86       SENSORBOARDASSEMBLY_PCB.ASM   4-20-2022  13:02:34         PAGE 66


SYMBOL TABLE
  LABEL                             VALUE 

T0CKPS3                           00000003
T0CON0                            00000FD5
T0CON1                            00000FD6
T0CS0                             00000005
T0CS1                             00000006
T0CS2                             00000007
T0EN                              00000007
T0OUT                             00000005
T0OUTPS0                          00000000
T0OUTPS1                          00000001
T0OUTPS2                          00000002
T0OUTPS3                          00000003
T0PR0                             00000000
T0PR1                             00000001
T0PR2                             00000002
T0PR3                             00000003
T0PR4                             00000004
T0PR5                             00000005
T0PR6                             00000006
T0PR7                             00000007
T0PS0                             00000000
T0PS1                             00000001
T0PS2                             00000002
T0PS3                             00000003
T1CKIPPS                          00000EA5
T1CKIPPS0                         00000000
T1CKIPPS1                         00000001
T1CKIPPS2                         00000002
T1CKIPPS3                         00000003
T1CKIPPS4                         00000004
T1CKPS0                           00000004
T1CKPS1                           00000005
T1CLK                             00000FD2
T1CON                             00000FCF
T1CS0                             00000000
T1CS1                             00000001
T1CS2                             00000002
T1CS3                             00000003
T1GATE                            00000FD1
T1GCON                            00000FD0
T1GE                              00000007
T1GGO                             00000003
T1GGO_NOT_DONE                    00000003
T1GPOL                            00000006
T1GPPS                            00000EA6
T1GPPS0                           00000000
T1GPPS1                           00000001
T1GPPS2                           00000002
T1GPPS3                           00000003
T1GPPS4                           00000004
T1GSPM                            00000004
T1GSS0                            00000000
T1GSS1                            00000001
MPASM 5.86       SENSORBOARDASSEMBLY_PCB.ASM   4-20-2022  13:02:34         PAGE 67


SYMBOL TABLE
  LABEL                             VALUE 

T1GSS2                            00000002
T1GSS3                            00000003
T1GTM                             00000005
T1GVAL                            00000002
T1RD16                            00000001
T2CKPOL                           00000006
T2CKPS0                           00000004
T2CKPS1                           00000005
T2CKPS2                           00000006
T2CKSYNC                          00000005
T2CLK                             00000FBF
T2CLKCON                          00000FBF
T2CON                             00000FBD
T2COUNT                           00000017
T2CS0                             00000000
T2CS1                             00000001
T2CS2                             00000002
T2CS3                             00000003
T2DELAY                           00000016
T2HLT                             00000FBE
T2INPPS                           00000EAB
T2INPPS0                          00000000
T2INPPS1                          00000001
T2INPPS2                          00000002
T2INPPS3                          00000003
T2INPPS4                          00000004
T2MODE0                           00000000
T2MODE1                           00000001
T2MODE2                           00000002
T2MODE3                           00000003
T2MODE4                           00000004
T2ON                              00000007
T2OUTPS0                          00000000
T2OUTPS1                          00000001
T2OUTPS2                          00000002
T2OUTPS3                          00000003
T2PR                              00000FBC
T2PSYNC                           00000007
T2RSEL0                           00000000
T2RSEL1                           00000001
T2RSEL2                           00000002
T2RSEL3                           00000003
T2RST                             00000FC0
T2SHIFT                           00000642
T2TICK                            00000636
T2TMR                             00000FBB
T3CKIPPS                          00000EA7
T3CKIPPS0                         00000000
T3CKIPPS1                         00000001
T3CKIPPS2                         00000002
T3CKIPPS3                         00000003
T3CKIPPS4                         00000004
T3CKPS0                           00000004
MPASM 5.86       SENSORBOARDASSEMBLY_PCB.ASM   4-20-2022  13:02:34         PAGE 68


SYMBOL TABLE
  LABEL                             VALUE 

T3CKPS1                           00000005
T3CLK                             00000FCC
T3CON                             00000FC9
T3CS0                             00000000
T3CS1                             00000001
T3CS2                             00000002
T3CS3                             00000003
T3GATE                            00000FCB
T3GCON                            00000FCA
T3GE                              00000007
T3GGO                             00000003
T3GGO_NOT_DONE                    00000003
T3GPOL                            00000006
T3GPPS                            00000EA8
T3GPPS0                           00000000
T3GPPS1                           00000001
T3GPPS2                           00000002
T3GPPS3                           00000003
T3GPPS4                           00000004
T3GSPM                            00000004
T3GSS0                            00000000
T3GSS1                            00000001
T3GSS2                            00000002
T3GSS3                            00000003
T3GTM                             00000005
T3GVAL                            00000002
T3RD16                            00000001
T4CKPOL                           00000006
T4CKPS0                           00000004
T4CKPS1                           00000005
T4CKPS2                           00000006
T4CKSYNC                          00000005
T4CLK                             00000FB9
T4CLKCON                          00000FB9
T4CON                             00000FB7
T4CS0                             00000000
T4CS1                             00000001
T4CS2                             00000002
T4CS3                             00000003
T4DELAY                           00000018
T4HLT                             00000FB8
T4INPPS                           00000EAC
T4INPPS0                          00000000
T4INPPS1                          00000001
T4INPPS2                          00000002
T4INPPS3                          00000003
T4INPPS4                          00000004
T4MODE0                           00000000
T4MODE1                           00000001
T4MODE2                           00000002
T4MODE3                           00000003
T4MODE4                           00000004
T4ON                              00000007
MPASM 5.86       SENSORBOARDASSEMBLY_PCB.ASM   4-20-2022  13:02:34         PAGE 69


SYMBOL TABLE
  LABEL                             VALUE 

T4OUTPS0                          00000000
T4OUTPS1                          00000001
T4OUTPS2                          00000002
T4OUTPS3                          00000003
T4PR                              00000FB6
T4PSYNC                           00000007
T4RSEL0                           00000000
T4RSEL1                           00000001
T4RSEL2                           00000002
T4RSEL3                           00000003
T4RST                             00000FBA
T4TICK                            00000282
T4TMR                             00000FB5
T5CKIPPS                          00000EA9
T5CKIPPS0                         00000000
T5CKIPPS1                         00000001
T5CKIPPS2                         00000002
T5CKIPPS3                         00000003
T5CKIPPS4                         00000004
T5CKPS0                           00000004
T5CKPS1                           00000005
T5CLK                             00000FC6
T5CON                             00000FC3
T5CS0                             00000000
T5CS1                             00000001
T5CS2                             00000002
T5CS3                             00000003
T5GATE                            00000FC5
T5GCON                            00000FC4
T5GE                              00000007
T5GGO                             00000003
T5GGO_NOT_DONE                    00000003
T5GPOL                            00000006
T5GPPS                            00000EAA
T5GPPS0                           00000000
T5GPPS1                           00000001
T5GPPS2                           00000002
T5GPPS3                           00000003
T5GPPS4                           00000004
T5GSPM                            00000004
T5GSS0                            00000000
T5GSS1                            00000001
T5GSS2                            00000002
T5GSS3                            00000003
T5GTM                             00000005
T5GVAL                            00000002
T5RD16                            00000001
T6CKPOL                           00000006
T6CKPS0                           00000004
T6CKPS1                           00000005
T6CKPS2                           00000006
T6CKSYNC                          00000005
T6CLK                             00000FB3
MPASM 5.86       SENSORBOARDASSEMBLY_PCB.ASM   4-20-2022  13:02:34         PAGE 70


SYMBOL TABLE
  LABEL                             VALUE 

T6CLKCON                          00000FB3
T6CON                             00000FB1
T6CS0                             00000000
T6CS1                             00000001
T6CS2                             00000002
T6CS3                             00000003
T6HLT                             00000FB2
T6INPPS                           00000EAD
T6INPPS0                          00000000
T6INPPS1                          00000001
T6INPPS2                          00000002
T6INPPS3                          00000003
T6INPPS4                          00000004
T6MODE0                           00000000
T6MODE1                           00000001
T6MODE2                           00000002
T6MODE3                           00000003
T6MODE4                           00000004
T6ON                              00000007
T6OUTPS0                          00000000
T6OUTPS1                          00000001
T6OUTPS2                          00000002
T6OUTPS3                          00000003
T6PR                              00000FB0
T6PSYNC                           00000007
T6RSEL0                           00000000
T6RSEL1                           00000001
T6RSEL2                           00000002
T6RSEL3                           00000003
T6RST                             00000FB4
T6TMR                             00000FAF
TABLAT                            00000FF5
TBLPTR                            00000FF6
TBLPTRH                           00000FF7
TBLPTRL                           00000FF6
TBLPTRU                           00000FF8
TEMPADR                           00000019
TIMER2SETUP                       00000128
TIMER4SETUP                       00000162
TMR0                              00000FD3
TMR0H                             00000FD4
TMR0H0                            00000000
TMR0H1                            00000001
TMR0H2                            00000002
TMR0H3                            00000003
TMR0H4                            00000004
TMR0H5                            00000005
TMR0H6                            00000006
TMR0H7                            00000007
TMR0IE                            00000005
TMR0IF                            00000005
TMR0IP                            00000005
TMR0L                             00000FD3
MPASM 5.86       SENSORBOARDASSEMBLY_PCB.ASM   4-20-2022  13:02:34         PAGE 71


SYMBOL TABLE
  LABEL                             VALUE 

TMR0L0                            00000000
TMR0L1                            00000001
TMR0L2                            00000002
TMR0L3                            00000003
TMR0L4                            00000004
TMR0L5                            00000005
TMR0L6                            00000006
TMR0L7                            00000007
TMR0MD                            00000000
TMR1                              00000FCD
TMR10                             00000000
TMR11                             00000001
TMR110                            00000002
TMR111                            00000003
TMR112                            00000004
TMR113                            00000005
TMR114                            00000006
TMR115                            00000007
TMR12                             00000002
TMR13                             00000003
TMR14                             00000004
TMR15                             00000005
TMR16                             00000006
TMR17                             00000007
TMR18                             00000000
TMR19                             00000001
TMR1CLK                           00000FD2
TMR1GATE                          00000FD1
TMR1GIE                           00000000
TMR1GIF                           00000000
TMR1GIP                           00000000
TMR1H                             00000FCE
TMR1H0                            00000000
TMR1H1                            00000001
TMR1H2                            00000002
TMR1H3                            00000003
TMR1H4                            00000004
TMR1H5                            00000005
TMR1H6                            00000006
TMR1H7                            00000007
TMR1IE                            00000000
TMR1IF                            00000000
TMR1IP                            00000000
TMR1L                             00000FCD
TMR1L0                            00000000
TMR1L1                            00000001
TMR1L2                            00000002
TMR1L3                            00000003
TMR1L4                            00000004
TMR1L5                            00000005
TMR1L6                            00000006
TMR1L7                            00000007
TMR1MD                            00000001
MPASM 5.86       SENSORBOARDASSEMBLY_PCB.ASM   4-20-2022  13:02:34         PAGE 72


SYMBOL TABLE
  LABEL                             VALUE 

TMR1ON                            00000000
TMR2                              00000FBB
TMR2HANDLE                        00000624
TMR2IE                            00000001
TMR2IF                            00000001
TMR2IP                            00000001
TMR2MD                            00000002
TMR2ON                            00000007
TMR2PROCESS                       0000026A
TMR3                              00000FC7
TMR30                             00000000
TMR31                             00000001
TMR310                            00000002
TMR311                            00000003
TMR312                            00000004
TMR313                            00000005
TMR314                            00000006
TMR315                            00000007
TMR32                             00000002
TMR33                             00000003
TMR34                             00000004
TMR35                             00000005
TMR36                             00000006
TMR37                             00000007
TMR38                             00000000
TMR39                             00000001
TMR3CLK                           00000FCC
TMR3GATE                          00000FCB
TMR3GIE                           00000001
TMR3GIF                           00000001
TMR3GIP                           00000001
TMR3H                             00000FC8
TMR3H0                            00000000
TMR3H1                            00000001
TMR3H2                            00000002
TMR3H3                            00000003
TMR3H4                            00000004
TMR3H5                            00000005
TMR3H6                            00000006
TMR3H7                            00000007
TMR3IE                            00000002
TMR3IF                            00000002
TMR3IP                            00000002
TMR3L                             00000FC7
TMR3L0                            00000000
TMR3L1                            00000001
TMR3L2                            00000002
TMR3L3                            00000003
TMR3L4                            00000004
TMR3L5                            00000005
TMR3L6                            00000006
TMR3L7                            00000007
TMR3MD                            00000003
MPASM 5.86       SENSORBOARDASSEMBLY_PCB.ASM   4-20-2022  13:02:34         PAGE 73


SYMBOL TABLE
  LABEL                             VALUE 

TMR3ON                            00000000
TMR4                              00000FB5
TMR4IE                            00000003
TMR4IF                            00000003
TMR4IP                            00000003
TMR4MD                            00000004
TMR4ON                            00000007
TMR4PROCESS                       00000272
TMR5                              00000FC1
TMR50                             00000000
TMR51                             00000001
TMR510                            00000002
TMR511                            00000003
TMR512                            00000004
TMR513                            00000005
TMR514                            00000006
TMR515                            00000007
TMR52                             00000002
TMR53                             00000003
TMR54                             00000004
TMR55                             00000005
TMR56                             00000006
TMR57                             00000007
TMR58                             00000000
TMR59                             00000001
TMR5CLK                           00000FC6
TMR5GATE                          00000FC5
TMR5GIE                           00000002
TMR5GIF                           00000002
TMR5GIP                           00000002
TMR5H                             00000FC2
TMR5H0                            00000000
TMR5H1                            00000001
TMR5H2                            00000002
TMR5H3                            00000003
TMR5H4                            00000004
TMR5H5                            00000005
TMR5H6                            00000006
TMR5H7                            00000007
TMR5IE                            00000004
TMR5IF                            00000004
TMR5IP                            00000004
TMR5L                             00000FC1
TMR5L0                            00000000
TMR5L1                            00000001
TMR5L2                            00000002
TMR5L3                            00000003
TMR5L4                            00000004
TMR5L5                            00000005
TMR5L6                            00000006
TMR5L7                            00000007
TMR5MD                            00000005
TMR5ON                            00000000
MPASM 5.86       SENSORBOARDASSEMBLY_PCB.ASM   4-20-2022  13:02:34         PAGE 74


SYMBOL TABLE
  LABEL                             VALUE 

TMR6                              00000FAF
TMR6IE                            00000005
TMR6IF                            00000005
TMR6IP                            00000005
TMR6MD                            00000006
TMR6ON                            00000007
TO                                00000006
TOS                               00000FFD
TOSH                              00000FFE
TOSL                              00000FFD
TOSU                              00000FFF
TRISA                             00000F88
TRISA0                            00000000
TRISA1                            00000001
TRISA2                            00000002
TRISA3                            00000003
TRISA4                            00000004
TRISA5                            00000005
TRISA6                            00000006
TRISA7                            00000007
TRISB                             00000F89
TRISB0                            00000000
TRISB1                            00000001
TRISB2                            00000002
TRISB3                            00000003
TRISB4                            00000004
TRISB5                            00000005
TRISB6                            00000006
TRISB7                            00000007
TRISC                             00000F8A
TRISC0                            00000000
TRISC1                            00000001
TRISC2                            00000002
TRISC3                            00000003
TRISC4                            00000004
TRISC5                            00000005
TRISC6                            00000006
TRISC7                            00000007
TRMT                              00000001
TSEL0                             00000000
TSEL1                             00000001
TSEL2                             00000002
TSEL3                             00000003
TSEN                              00000005
TSRNG                             00000004
TUN0                              00000000
TUN1                              00000001
TUN2                              00000002
TUN3                              00000003
TUN4                              00000004
TUN5                              00000005
TX1IE                             00000004
TX1IF                             00000004
MPASM 5.86       SENSORBOARDASSEMBLY_PCB.ASM   4-20-2022  13:02:34         PAGE 75


SYMBOL TABLE
  LABEL                             VALUE 

TX1IP                             00000004
TX1PPS                            00000EB6
TX1REG                            00000F9A
TX1STA                            00000F9E
TX2IE                             00000006
TX2IF                             00000006
TX2IP                             00000006
TX2PPS                            00000E8E
TX2REG                            00000E9A
TX2STA                            00000E9E
TX9                               00000006
TX9D                              00000000
TXEN                              00000005
TXPPS                             00000EB6
TXREG                             00000F9A
TXREG1                            00000F9A
TXREG2                            00000E9A
TXSTA                             00000F9E
TXSTA1                            00000F9E
TXSTA2                            00000E9E
UA                                00000001
UART1MD                           00000006
UART2MD                           00000007
VARRAY                            00000003
VINDEX                            00000004
VREGCON                           00000EDF
VREGPM0                           00000000
VREGPM1                           00000001
W                                 00000000
WCOL                              00000007
WDTCON0                           00000ED2
WDTCON1                           00000ED3
WDTCS0                            00000004
WDTCS1                            00000005
WDTCS2                            00000006
WDTPS0                            00000001
WDTPS1                            00000002
WDTPS2                            00000003
WDTPS3                            00000004
WDTPS4                            00000005
WDTPSCNT0                         00000000
WDTPSCNT1                         00000001
WDTPSCNT10                        00000002
WDTPSCNT11                        00000003
WDTPSCNT12                        00000004
WDTPSCNT13                        00000005
WDTPSCNT14                        00000006
WDTPSCNT15                        00000007
WDTPSCNT16                        00000000
WDTPSCNT17                        00000001
WDTPSCNT2                         00000002
WDTPSCNT3                         00000003
WDTPSCNT4                         00000004
MPASM 5.86       SENSORBOARDASSEMBLY_PCB.ASM   4-20-2022  13:02:34         PAGE 76


SYMBOL TABLE
  LABEL                             VALUE 

WDTPSCNT5                         00000005
WDTPSCNT6                         00000006
WDTPSCNT7                         00000007
WDTPSCNT8                         00000000
WDTPSCNT9                         00000001
WDTPSH                            00000ED5
WDTPSL                            00000ED4
WDTSEN                            00000000
WDTSTATE                          00000002
WDTTMR                            00000ED6
WDTTMR0                           00000003
WDTTMR1                           00000004
WDTTMR2                           00000005
WDTTMR3                           00000006
WDTTMR4                           00000007
WDTWINDOW0                        00000000
WDTWINDOW1                        00000001
WDTWINDOW2                        00000002
WDTWV                             00000005
WINDOW0                           00000000
WINDOW1                           00000001
WINDOW2                           00000002
WPUA                              00000F10
WPUA0                             00000000
WPUA1                             00000001
WPUA2                             00000002
WPUA3                             00000003
WPUA4                             00000004
WPUA5                             00000005
WPUA6                             00000006
WPUA7                             00000007
WPUB                              00000F18
WPUB0                             00000000
WPUB1                             00000001
WPUB2                             00000002
WPUB3                             00000003
WPUB4                             00000004
WPUB5                             00000005
WPUB6                             00000006
WPUB7                             00000007
WPUC                              00000F20
WPUC0                             00000000
WPUC1                             00000001
WPUC2                             00000002
WPUC3                             00000003
WPUC4                             00000004
WPUC5                             00000005
WPUC6                             00000006
WPUC7                             00000007
WPUE                              00000F2D
WPUE3                             00000003
WR                                00000001
WREG                              00000FE8
MPASM 5.86       SENSORBOARDASSEMBLY_PCB.ASM   4-20-2022  13:02:34         PAGE 77


SYMBOL TABLE
  LABEL                             VALUE 

WREN                              00000002
WRERR                             00000003
WRITETOEEPROM                     0000032A
WSAVE                             00000000
WUE                               00000001
X1                                00000001
X10                               00000002
X11                               00000003
X12                               00000004
X13                               00000005
X14                               00000006
X15                               00000007
X2                                00000002
X3                                00000003
X4                                00000004
X5                                00000005
X6                                00000006
X7                                00000007
X8                                00000000
X9                                00000001
Z                                 00000002
ZCDCON                            00000F32
ZCDIE                             00000006
ZCDIF                             00000006
ZCDINTN                           00000000
ZCDINTP                           00000001
ZCDIP                             00000006
ZCDMD                             00000000
ZCDOUT                            00000005
ZCDPOL                            00000004
ZCDSEN                            00000007
_.org_1_0352                      00000352
_.org_1_037A                      0000037A
_.org_1_0386                      00000386
_.org_1_0392                      00000392
_.org_1_03A2                      000003A2
_.org_1_03BC                      000003BC
_.org_1_03DC                      000003DC
_.org_1_03F0                      000003F0
_.org_1_03FC                      000003FC
_.org_1_0410                      00000410
_.org_1_041C                      0000041C
_.org_1_0430                      00000430
_BOREN_NOSLP_2L                   000000BF
_BOREN_OFF_2L                     0000003F
_BOREN_ON_2L                      0000007F
_BOREN_SBORDIS_2L                 000000FF
_BORV_VBOR_245_2H                 000000FE
_BORV_VBOR_270_2H                 000000FD
_BORV_VBOR_285_2H                 000000FC
_BORV_VBOR_2P45_2H                000000FF
_CLKOUTEN_OFF_1H                  000000FF
_CLKOUTEN_ON_1H                   000000FE
MPASM 5.86       SENSORBOARDASSEMBLY_PCB.ASM   4-20-2022  13:02:34         PAGE 78


SYMBOL TABLE
  LABEL                             VALUE 

_CONFIG1H                         00300001
_CONFIG1L                         00300000
_CONFIG2H                         00300003
_CONFIG2L                         00300002
_CONFIG3H                         00300005
_CONFIG3L                         00300004
_CONFIG4H                         00300007
_CONFIG4L                         00300006
_CONFIG5H                         00300009
_CONFIG5L                         00300008
_CONFIG6H                         0030000B
_CONFIG6L                         0030000A
_CPD_OFF_5L                       000000FF
_CPD_ON_5L                        000000FD
_CP_OFF_5L                        000000FF
_CP_ON_5L                         000000FE
_CSWEN_OFF_1H                     000000F7
_CSWEN_ON_1H                      000000FF
_DEBUG_OFF_2H                     000000FF
_DEBUG_ON_2H                      000000DF
_DEVID1                           003FFFFE
_DEVID2                           003FFFFF
_EBTR0_OFF_6L                     000000FF
_EBTR0_ON_6L                      000000FE
_EBTR1_OFF_6L                     000000FF
_EBTR1_ON_6L                      000000FD
_EBTR2_OFF_6L                     000000FF
_EBTR2_ON_6L                      000000FB
_EBTR3_OFF_6L                     000000FF
_EBTR3_ON_6L                      000000F7
_EBTRB_OFF_6H                     000000FF
_EBTRB_ON_6H                      000000FD
_FCMEN_OFF_1H                     000000DF
_FCMEN_ON_1H                      000000FF
_FEXTOSC_ECH_1L                   000000FF
_FEXTOSC_ECL_1L                   000000FD
_FEXTOSC_ECM_1L                   000000FE
_FEXTOSC_HS_1L                    000000FA
_FEXTOSC_LP_1L                    000000F8
_FEXTOSC_OFF_1L                   000000FC
_FEXTOSC_RESERVED_1L              000000FB
_FEXTOSC_XT_1L                    000000F9
_IDLOC0                           00200000
_IDLOC1                           00200001
_IDLOC10                          0020000A
_IDLOC11                          0020000B
_IDLOC12                          0020000C
_IDLOC13                          0020000D
_IDLOC14                          0020000E
_IDLOC15                          0020000F
_IDLOC2                           00200002
_IDLOC3                           00200003
_IDLOC4                           00200004
MPASM 5.86       SENSORBOARDASSEMBLY_PCB.ASM   4-20-2022  13:02:34         PAGE 79


SYMBOL TABLE
  LABEL                             VALUE 

_IDLOC5                           00200005
_IDLOC6                           00200006
_IDLOC7                           00200007
_IDLOC8                           00200008
_IDLOC9                           00200009
_LPBOREN_OFF_2L                   000000FF
_LPBOREN_ON_2L                    000000DF
_LVP_OFF_4H                       000000DF
_LVP_ON_4H                        000000FF
_MCLRE_EXTMCLR_2L                 000000FF
_MCLRE_INTMCLR_2L                 000000FE
_PPS1WAY_OFF_2H                   000000F7
_PPS1WAY_ON_2H                    000000FF
_PWRTE_OFF_2L                     000000FF
_PWRTE_ON_2L                      000000FD
_RSTOSC_EXTOSC_1L                 000000FF
_RSTOSC_EXTOSC_4PLL_1L            000000AF
_RSTOSC_HFINTOSC_1MHZ_1L          000000EF
_RSTOSC_HFINTOSC_64MHZ_1L         0000008F
_RSTOSC_LFINTOSC_1L               000000DF
_RSTOSC_RESERVED_1_1L             0000009F
_RSTOSC_RESERVED_2_1L             000000BF
_RSTOSC_SOSC_1L                   000000CF
_SCANE_OFF_4H                     000000EF
_SCANE_ON_4H                      000000FF
_STVREN_OFF_2H                    000000EF
_STVREN_ON_2H                     000000FF
_WDTCCS_HFINTOSC_3H               000000CF
_WDTCCS_LFINTOSC_3H               000000C7
_WDTCCS_SC_3H                     000000FF
_WDTCPS_WDTCPS_0_3L               000000E0
_WDTCPS_WDTCPS_10_3L              000000EA
_WDTCPS_WDTCPS_11_3L              000000EB
_WDTCPS_WDTCPS_12_3L              000000EC
_WDTCPS_WDTCPS_13_3L              000000ED
_WDTCPS_WDTCPS_14_3L              000000EE
_WDTCPS_WDTCPS_15_3L              000000EF
_WDTCPS_WDTCPS_16_3L              000000F0
_WDTCPS_WDTCPS_17_3L              000000F1
_WDTCPS_WDTCPS_18_3L              000000F2
_WDTCPS_WDTCPS_19_3L              000000F3
_WDTCPS_WDTCPS_1_3L               000000E1
_WDTCPS_WDTCPS_20_3L              000000F4
_WDTCPS_WDTCPS_21_3L              000000F5
_WDTCPS_WDTCPS_22_3L              000000F6
_WDTCPS_WDTCPS_23_3L              000000F7
_WDTCPS_WDTCPS_24_3L              000000F8
_WDTCPS_WDTCPS_25_3L              000000F9
_WDTCPS_WDTCPS_26_3L              000000FA
_WDTCPS_WDTCPS_27_3L              000000FB
_WDTCPS_WDTCPS_28_3L              000000FC
_WDTCPS_WDTCPS_29_3L              000000FD
_WDTCPS_WDTCPS_2_3L               000000E2
MPASM 5.86       SENSORBOARDASSEMBLY_PCB.ASM   4-20-2022  13:02:34         PAGE 80


SYMBOL TABLE
  LABEL                             VALUE 

_WDTCPS_WDTCPS_30_3L              000000FE
_WDTCPS_WDTCPS_31_3L              000000FF
_WDTCPS_WDTCPS_3_3L               000000E3
_WDTCPS_WDTCPS_4_3L               000000E4
_WDTCPS_WDTCPS_5_3L               000000E5
_WDTCPS_WDTCPS_6_3L               000000E6
_WDTCPS_WDTCPS_7_3L               000000E7
_WDTCPS_WDTCPS_8_3L               000000E8
_WDTCPS_WDTCPS_9_3L               000000E9
_WDTCWS_WDTCWS_0_3H               000000F8
_WDTCWS_WDTCWS_1_3H               000000F9
_WDTCWS_WDTCWS_2_3H               000000FA
_WDTCWS_WDTCWS_3_3H               000000FB
_WDTCWS_WDTCWS_4_3H               000000FC
_WDTCWS_WDTCWS_5_3H               000000FD
_WDTCWS_WDTCWS_6_3H               000000FE
_WDTCWS_WDTCWS_7_3H               000000FF
_WDTE_NSLEEP_3L                   000000DF
_WDTE_OFF_3L                      0000009F
_WDTE_ON_3L                       000000FF
_WDTE_SWDTEN_3L                   000000BF
_WRT0_OFF_4L                      000000FF
_WRT0_ON_4L                       000000FE
_WRT1_OFF_4L                      000000FF
_WRT1_ON_4L                       000000FD
_WRT2_OFF_4L                      000000FF
_WRT2_ON_4L                       000000FB
_WRT3_OFF_4L                      000000FF
_WRT3_ON_4L                       000000F7
_WRTB_OFF_4H                      000000FF
_WRTB_ON_4H                       000000FD
_WRTC_OFF_4H                      000000FF
_WRTC_ON_4H                       000000FE
_WRTD_OFF_4H                      000000FF
_WRTD_ON_4H                       000000FB
_XINST_OFF_2H                     000000FF
_XINST_ON_2H                      0000007F
_ZCD_OFF_2H                       000000FF
_ZCD_ON_2H                        000000FB
__18F26K40                        00000001

Errors   :     0
Warnings :     1 reported,     0 suppressed
Messages :     0 reported,     0 suppressed

